(lp0
(i__main__
Sample
p1
(dp2
S'_fastq_pairs'
p3
(lp4
(i__main__
Fastq_Pair
p5
(dp6
S'input_dir'
p7
S'/nas/erik/48exomes/Project_BCH_pool1_r1/Sample_1216301787A'
p8
sS'lane'
p9
S'001'
p10
sS'r1'
p11
S'1216301787A_ATCACG_L001_R1_001.fastq'
p12
sS'r2'
p13
S'1216301787A_ATCACG_L001_R2_001.fastq'
p14
sS'readGroupNumber'
p15
S'001'
p16
sba(i__main__
Fastq_Pair
p17
(dp18
g7
g8
sg9
g10
sg11
S'1216301787A_ATCACG_L001_R1_002.fastq'
p19
sg13
S'1216301787A_ATCACG_L001_R2_002.fastq'
p20
sg15
S'002'
p21
sba(i__main__
Fastq_Pair
p22
(dp23
g7
g8
sg9
g10
sg11
S'1216301787A_ATCACG_L001_R1_003.fastq'
p24
sg13
S'1216301787A_ATCACG_L001_R2_003.fastq'
p25
sg15
S'003'
p26
sba(i__main__
Fastq_Pair
p27
(dp28
g7
g8
sg9
g10
sg11
S'1216301787A_ATCACG_L001_R1_004.fastq'
p29
sg13
S'1216301787A_ATCACG_L001_R2_004.fastq'
p30
sg15
S'004'
p31
sba(i__main__
Fastq_Pair
p32
(dp33
g7
g8
sg9
g10
sg11
S'1216301787A_ATCACG_L001_R2_005.fastq'
p34
sg13
S'1216301787A_ATCACG_L001_R1_005.fastq'
p35
sg15
S'005'
p36
sba(i__main__
Fastq_Pair
p37
(dp38
g7
g8
sg9
S'002'
p39
sg11
S'1216301787A_ATCACG_L002_R1_001.fastq'
p40
sg13
S'1216301787A_ATCACG_L002_R2_001.fastq'
p41
sg15
S'001'
p42
sba(i__main__
Fastq_Pair
p43
(dp44
g7
g8
sg9
g39
sg11
S'1216301787A_ATCACG_L002_R1_002.fastq'
p45
sg13
S'1216301787A_ATCACG_L002_R2_002.fastq'
p46
sg15
S'002'
p47
sba(i__main__
Fastq_Pair
p48
(dp49
g7
g8
sg9
g39
sg11
S'1216301787A_ATCACG_L002_R2_003.fastq'
p50
sg13
S'1216301787A_ATCACG_L002_R1_003.fastq'
p51
sg15
S'003'
p52
sba(i__main__
Fastq_Pair
p53
(dp54
g7
g8
sg9
g39
sg11
S'1216301787A_ATCACG_L002_R2_004.fastq'
p55
sg13
S'1216301787A_ATCACG_L002_R1_004.fastq'
p56
sg15
S'004'
p57
sba(i__main__
Fastq_Pair
p58
(dp59
g7
g8
sg9
g39
sg11
S'1216301787A_ATCACG_L002_R2_005.fastq'
p60
sg13
S'1216301787A_ATCACG_L002_R1_005.fastq'
p61
sg15
S'005'
p62
sbasS'flowcell'
p63
S'C0MR3ACXX'
p64
sS'input_path'
p65
g8
sS'name'
p66
S'1216301787A'
p67
sba(i__main__
Sample
p68
(dp69
g3
(lp70
(i__main__
Fastq_Pair
p71
(dp72
g7
S'/nas/erik/48exomes/Project_BCH_pool1_r1/Sample_1216301782A'
p73
sg9
S'001'
p74
sg11
S'1216301782A_TTAGGC_L001_R1_001.fastq'
p75
sg13
S'1216301782A_TTAGGC_L001_R2_001.fastq'
p76
sg15
S'001'
p77
sba(i__main__
Fastq_Pair
p78
(dp79
g7
g73
sg9
g74
sg11
S'1216301782A_TTAGGC_L001_R1_002.fastq'
p80
sg13
S'1216301782A_TTAGGC_L001_R2_002.fastq'
p81
sg15
S'002'
p82
sba(i__main__
Fastq_Pair
p83
(dp84
g7
g73
sg9
g74
sg11
S'1216301782A_TTAGGC_L001_R2_003.fastq'
p85
sg13
S'1216301782A_TTAGGC_L001_R1_003.fastq'
p86
sg15
S'003'
p87
sba(i__main__
Fastq_Pair
p88
(dp89
g7
g73
sg9
g74
sg11
S'1216301782A_TTAGGC_L001_R2_004.fastq'
p90
sg13
S'1216301782A_TTAGGC_L001_R1_004.fastq'
p91
sg15
S'004'
p92
sba(i__main__
Fastq_Pair
p93
(dp94
g7
g73
sg9
g74
sg11
S'1216301782A_TTAGGC_L001_R2_005.fastq'
p95
sg13
S'1216301782A_TTAGGC_L001_R1_005.fastq'
p96
sg15
S'005'
p97
sba(i__main__
Fastq_Pair
p98
(dp99
g7
g73
sg9
S'002'
p100
sg11
S'1216301782A_TTAGGC_L002_R1_001.fastq'
p101
sg13
S'1216301782A_TTAGGC_L002_R2_001.fastq'
p102
sg15
S'001'
p103
sba(i__main__
Fastq_Pair
p104
(dp105
g7
g73
sg9
g100
sg11
S'1216301782A_TTAGGC_L002_R2_002.fastq'
p106
sg13
S'1216301782A_TTAGGC_L002_R1_002.fastq'
p107
sg15
S'002'
p108
sba(i__main__
Fastq_Pair
p109
(dp110
g7
g73
sg9
g100
sg11
S'1216301782A_TTAGGC_L002_R1_003.fastq'
p111
sg13
S'1216301782A_TTAGGC_L002_R2_003.fastq'
p112
sg15
S'003'
p113
sba(i__main__
Fastq_Pair
p114
(dp115
g7
g73
sg9
g100
sg11
S'1216301782A_TTAGGC_L002_R2_004.fastq'
p116
sg13
S'1216301782A_TTAGGC_L002_R1_004.fastq'
p117
sg15
S'004'
p118
sba(i__main__
Fastq_Pair
p119
(dp120
g7
g73
sg9
g100
sg11
S'1216301782A_TTAGGC_L002_R1_005.fastq'
p121
sg13
S'1216301782A_TTAGGC_L002_R2_005.fastq'
p122
sg15
S'005'
p123
sbasg63
S'C0MR3ACXX'
p124
sg65
g73
sg66
S'1216301782A'
p125
sba(i__main__
Sample
p126
(dp127
g3
(lp128
(i__main__
Fastq_Pair
p129
(dp130
g7
S'/nas/erik/48exomes/Project_BCH_pool1_r1/Sample_1216301790A'
p131
sg9
S'001'
p132
sg11
S'1216301790A_CAGATC_L001_R1_001.fastq'
p133
sg13
S'1216301790A_CAGATC_L001_R2_001.fastq'
p134
sg15
S'001'
p135
sba(i__main__
Fastq_Pair
p136
(dp137
g7
g131
sg9
g132
sg11
S'1216301790A_CAGATC_L001_R1_002.fastq'
p138
sg13
S'1216301790A_CAGATC_L001_R2_002.fastq'
p139
sg15
S'002'
p140
sba(i__main__
Fastq_Pair
p141
(dp142
g7
g131
sg9
g132
sg11
S'1216301790A_CAGATC_L001_R1_003.fastq'
p143
sg13
S'1216301790A_CAGATC_L001_R2_003.fastq'
p144
sg15
S'003'
p145
sba(i__main__
Fastq_Pair
p146
(dp147
g7
g131
sg9
g132
sg11
S'1216301790A_CAGATC_L001_R2_004.fastq'
p148
sg13
S'1216301790A_CAGATC_L001_R1_004.fastq'
p149
sg15
S'004'
p150
sba(i__main__
Fastq_Pair
p151
(dp152
g7
g131
sg9
g132
sg11
S'1216301790A_CAGATC_L001_R1_005.fastq'
p153
sg13
S'1216301790A_CAGATC_L001_R2_005.fastq'
p154
sg15
S'005'
p155
sba(i__main__
Fastq_Pair
p156
(dp157
g7
g131
sg9
g132
sg11
S'1216301790A_CAGATC_L001_R1_006.fastq'
p158
sg13
S'1216301790A_CAGATC_L001_R2_006.fastq'
p159
sg15
S'006'
p160
sba(i__main__
Fastq_Pair
p161
(dp162
g7
g131
sg9
S'002'
p163
sg11
S'1216301790A_CAGATC_L002_R2_001.fastq'
p164
sg13
S'1216301790A_CAGATC_L002_R1_001.fastq'
p165
sg15
S'001'
p166
sba(i__main__
Fastq_Pair
p167
(dp168
g7
g131
sg9
g163
sg11
S'1216301790A_CAGATC_L002_R1_002.fastq'
p169
sg13
S'1216301790A_CAGATC_L002_R2_002.fastq'
p170
sg15
S'002'
p171
sba(i__main__
Fastq_Pair
p172
(dp173
g7
g131
sg9
g163
sg11
S'1216301790A_CAGATC_L002_R2_003.fastq'
p174
sg13
S'1216301790A_CAGATC_L002_R1_003.fastq'
p175
sg15
S'003'
p176
sba(i__main__
Fastq_Pair
p177
(dp178
g7
g131
sg9
g163
sg11
S'1216301790A_CAGATC_L002_R1_004.fastq'
p179
sg13
S'1216301790A_CAGATC_L002_R2_004.fastq'
p180
sg15
S'004'
p181
sba(i__main__
Fastq_Pair
p182
(dp183
g7
g131
sg9
g163
sg11
S'1216301790A_CAGATC_L002_R2_005.fastq'
p184
sg13
S'1216301790A_CAGATC_L002_R1_005.fastq'
p185
sg15
S'005'
p186
sba(i__main__
Fastq_Pair
p187
(dp188
g7
g131
sg9
g163
sg11
S'1216301790A_CAGATC_L002_R1_006.fastq'
p189
sg13
S'1216301790A_CAGATC_L002_R2_006.fastq'
p190
sg15
S'006'
p191
sbasg63
S'C0MR3ACXX'
p192
sg65
g131
sg66
S'1216301790A'
p193
sba(i__main__
Sample
p194
(dp195
g3
(lp196
(i__main__
Fastq_Pair
p197
(dp198
g7
S'/nas/erik/48exomes/Project_BCH_pool1_r1/Sample_1216301779A'
p199
sg9
S'001'
p200
sg11
S'1216301779A_GCCAAT_L001_R2_001.fastq'
p201
sg13
S'1216301779A_GCCAAT_L001_R1_001.fastq'
p202
sg15
S'001'
p203
sba(i__main__
Fastq_Pair
p204
(dp205
g7
g199
sg9
g200
sg11
S'1216301779A_GCCAAT_L001_R1_002.fastq'
p206
sg13
S'1216301779A_GCCAAT_L001_R2_002.fastq'
p207
sg15
S'002'
p208
sba(i__main__
Fastq_Pair
p209
(dp210
g7
g199
sg9
g200
sg11
S'1216301779A_GCCAAT_L001_R1_003.fastq'
p211
sg13
S'1216301779A_GCCAAT_L001_R2_003.fastq'
p212
sg15
S'003'
p213
sba(i__main__
Fastq_Pair
p214
(dp215
g7
g199
sg9
g200
sg11
S'1216301779A_GCCAAT_L001_R1_004.fastq'
p216
sg13
S'1216301779A_GCCAAT_L001_R2_004.fastq'
p217
sg15
S'004'
p218
sba(i__main__
Fastq_Pair
p219
(dp220
g7
g199
sg9
g200
sg11
S'1216301779A_GCCAAT_L001_R2_005.fastq'
p221
sg13
S'1216301779A_GCCAAT_L001_R1_005.fastq'
p222
sg15
S'005'
p223
sba(i__main__
Fastq_Pair
p224
(dp225
g7
g199
sg9
g200
sg11
S'1216301779A_GCCAAT_L001_R1_006.fastq'
p226
sg13
S'1216301779A_GCCAAT_L001_R2_006.fastq'
p227
sg15
S'006'
p228
sba(i__main__
Fastq_Pair
p229
(dp230
g7
g199
sg9
S'002'
p231
sg11
S'1216301779A_GCCAAT_L002_R1_001.fastq'
p232
sg13
S'1216301779A_GCCAAT_L002_R2_001.fastq'
p233
sg15
S'001'
p234
sba(i__main__
Fastq_Pair
p235
(dp236
g7
g199
sg9
g231
sg11
S'1216301779A_GCCAAT_L002_R2_002.fastq'
p237
sg13
S'1216301779A_GCCAAT_L002_R1_002.fastq'
p238
sg15
S'002'
p239
sba(i__main__
Fastq_Pair
p240
(dp241
g7
g199
sg9
g231
sg11
S'1216301779A_GCCAAT_L002_R1_003.fastq'
p242
sg13
S'1216301779A_GCCAAT_L002_R2_003.fastq'
p243
sg15
S'003'
p244
sba(i__main__
Fastq_Pair
p245
(dp246
g7
g199
sg9
g231
sg11
S'1216301779A_GCCAAT_L002_R2_004.fastq'
p247
sg13
S'1216301779A_GCCAAT_L002_R1_004.fastq'
p248
sg15
S'004'
p249
sba(i__main__
Fastq_Pair
p250
(dp251
g7
g199
sg9
g231
sg11
S'1216301779A_GCCAAT_L002_R1_005.fastq'
p252
sg13
S'1216301779A_GCCAAT_L002_R2_005.fastq'
p253
sg15
S'005'
p254
sba(i__main__
Fastq_Pair
p255
(dp256
g7
g199
sg9
g231
sg11
S'1216301779A_GCCAAT_L002_R1_006.fastq'
p257
sg13
S'1216301779A_GCCAAT_L002_R2_006.fastq'
p258
sg15
S'006'
p259
sbasg63
S'C0MR3ACXX'
p260
sg65
g199
sg66
S'1216301779A'
p261
sba(i__main__
Sample
p262
(dp263
g3
(lp264
(i__main__
Fastq_Pair
p265
(dp266
g7
S'/nas/erik/48exomes/Project_BCH_pool1_r1/Sample_1216301781A'
p267
sg9
S'001'
p268
sg11
S'1216301781A_CTTGTA_L001_R1_001.fastq'
p269
sg13
S'1216301781A_CTTGTA_L001_R2_001.fastq'
p270
sg15
S'001'
p271
sba(i__main__
Fastq_Pair
p272
(dp273
g7
g267
sg9
g268
sg11
S'1216301781A_CTTGTA_L001_R2_002.fastq'
p274
sg13
S'1216301781A_CTTGTA_L001_R1_002.fastq'
p275
sg15
S'002'
p276
sba(i__main__
Fastq_Pair
p277
(dp278
g7
g267
sg9
g268
sg11
S'1216301781A_CTTGTA_L001_R2_003.fastq'
p279
sg13
S'1216301781A_CTTGTA_L001_R1_003.fastq'
p280
sg15
S'003'
p281
sba(i__main__
Fastq_Pair
p282
(dp283
g7
g267
sg9
g268
sg11
S'1216301781A_CTTGTA_L001_R1_004.fastq'
p284
sg13
S'1216301781A_CTTGTA_L001_R2_004.fastq'
p285
sg15
S'004'
p286
sba(i__main__
Fastq_Pair
p287
(dp288
g7
g267
sg9
g268
sg11
S'1216301781A_CTTGTA_L001_R1_005.fastq'
p289
sg13
S'1216301781A_CTTGTA_L001_R2_005.fastq'
p290
sg15
S'005'
p291
sba(i__main__
Fastq_Pair
p292
(dp293
g7
g267
sg9
g268
sg11
S'1216301781A_CTTGTA_L001_R1_006.fastq'
p294
sg13
S'1216301781A_CTTGTA_L001_R2_006.fastq'
p295
sg15
S'006'
p296
sba(i__main__
Fastq_Pair
p297
(dp298
g7
g267
sg9
g268
sg11
S'1216301781A_CTTGTA_L001_R2_007.fastq'
p299
sg13
S'1216301781A_CTTGTA_L001_R1_007.fastq'
p300
sg15
S'007'
p301
sba(i__main__
Fastq_Pair
p302
(dp303
g7
g267
sg9
g268
sg11
S'1216301781A_CTTGTA_L001_R1_008.fastq'
p304
sg13
S'1216301781A_CTTGTA_L001_R2_008.fastq'
p305
sg15
S'008'
p306
sba(i__main__
Fastq_Pair
p307
(dp308
g7
g267
sg9
g268
sg11
S'1216301781A_CTTGTA_L001_R2_009.fastq'
p309
sg13
S'1216301781A_CTTGTA_L001_R1_009.fastq'
p310
sg15
S'009'
p311
sba(i__main__
Fastq_Pair
p312
(dp313
g7
g267
sg9
S'002'
p314
sg11
S'1216301781A_CTTGTA_L002_R2_001.fastq'
p315
sg13
S'1216301781A_CTTGTA_L002_R1_001.fastq'
p316
sg15
S'001'
p317
sba(i__main__
Fastq_Pair
p318
(dp319
g7
g267
sg9
g314
sg11
S'1216301781A_CTTGTA_L002_R2_002.fastq'
p320
sg13
S'1216301781A_CTTGTA_L002_R1_002.fastq'
p321
sg15
S'002'
p322
sba(i__main__
Fastq_Pair
p323
(dp324
g7
g267
sg9
g314
sg11
S'1216301781A_CTTGTA_L002_R2_003.fastq'
p325
sg13
S'1216301781A_CTTGTA_L002_R1_003.fastq'
p326
sg15
S'003'
p327
sba(i__main__
Fastq_Pair
p328
(dp329
g7
g267
sg9
g314
sg11
S'1216301781A_CTTGTA_L002_R1_004.fastq'
p330
sg13
S'1216301781A_CTTGTA_L002_R2_004.fastq'
p331
sg15
S'004'
p332
sba(i__main__
Fastq_Pair
p333
(dp334
g7
g267
sg9
g314
sg11
S'1216301781A_CTTGTA_L002_R1_005.fastq'
p335
sg13
S'1216301781A_CTTGTA_L002_R2_005.fastq'
p336
sg15
S'005'
p337
sba(i__main__
Fastq_Pair
p338
(dp339
g7
g267
sg9
g314
sg11
S'1216301781A_CTTGTA_L002_R2_006.fastq'
p340
sg13
S'1216301781A_CTTGTA_L002_R1_006.fastq'
p341
sg15
S'006'
p342
sba(i__main__
Fastq_Pair
p343
(dp344
g7
g267
sg9
g314
sg11
S'1216301781A_CTTGTA_L002_R2_007.fastq'
p345
sg13
S'1216301781A_CTTGTA_L002_R1_007.fastq'
p346
sg15
S'007'
p347
sba(i__main__
Fastq_Pair
p348
(dp349
g7
g267
sg9
g314
sg11
S'1216301781A_CTTGTA_L002_R2_008.fastq'
p350
sg13
S'1216301781A_CTTGTA_L002_R1_008.fastq'
p351
sg15
S'008'
p352
sba(i__main__
Fastq_Pair
p353
(dp354
g7
g267
sg9
g314
sg11
S'1216301781A_CTTGTA_L002_R2_009.fastq'
p355
sg13
S'1216301781A_CTTGTA_L002_R1_009.fastq'
p356
sg15
S'009'
p357
sbasg63
S'C0MR3ACXX'
p358
sg65
g267
sg66
S'1216301781A'
p359
sba(i__main__
Sample
p360
(dp361
g3
(lp362
(i__main__
Fastq_Pair
p363
(dp364
g7
S'/nas/erik/48exomes/Project_BCH_pool1_r1/Sample_1216301809A'
p365
sg9
S'001'
p366
sg11
S'1216301809A_GGCTAC_L001_R2_001.fastq'
p367
sg13
S'1216301809A_GGCTAC_L001_R1_001.fastq'
p368
sg15
S'001'
p369
sba(i__main__
Fastq_Pair
p370
(dp371
g7
g365
sg9
g366
sg11
S'1216301809A_GGCTAC_L001_R1_002.fastq'
p372
sg13
S'1216301809A_GGCTAC_L001_R2_002.fastq'
p373
sg15
S'002'
p374
sba(i__main__
Fastq_Pair
p375
(dp376
g7
g365
sg9
g366
sg11
S'1216301809A_GGCTAC_L001_R1_003.fastq'
p377
sg13
S'1216301809A_GGCTAC_L001_R2_003.fastq'
p378
sg15
S'003'
p379
sba(i__main__
Fastq_Pair
p380
(dp381
g7
g365
sg9
g366
sg11
S'1216301809A_GGCTAC_L001_R2_004.fastq'
p382
sg13
S'1216301809A_GGCTAC_L001_R1_004.fastq'
p383
sg15
S'004'
p384
sba(i__main__
Fastq_Pair
p385
(dp386
g7
g365
sg9
g366
sg11
S'1216301809A_GGCTAC_L001_R1_005.fastq'
p387
sg13
S'1216301809A_GGCTAC_L001_R2_005.fastq'
p388
sg15
S'005'
p389
sba(i__main__
Fastq_Pair
p390
(dp391
g7
g365
sg9
g366
sg11
S'1216301809A_GGCTAC_L001_R2_006.fastq'
p392
sg13
S'1216301809A_GGCTAC_L001_R1_006.fastq'
p393
sg15
S'006'
p394
sba(i__main__
Fastq_Pair
p395
(dp396
g7
g365
sg9
S'002'
p397
sg11
S'1216301809A_GGCTAC_L002_R2_001.fastq'
p398
sg13
S'1216301809A_GGCTAC_L002_R1_001.fastq'
p399
sg15
S'001'
p400
sba(i__main__
Fastq_Pair
p401
(dp402
g7
g365
sg9
g397
sg11
S'1216301809A_GGCTAC_L002_R1_002.fastq'
p403
sg13
S'1216301809A_GGCTAC_L002_R2_002.fastq'
p404
sg15
S'002'
p405
sba(i__main__
Fastq_Pair
p406
(dp407
g7
g365
sg9
g397
sg11
S'1216301809A_GGCTAC_L002_R2_003.fastq'
p408
sg13
S'1216301809A_GGCTAC_L002_R1_003.fastq'
p409
sg15
S'003'
p410
sba(i__main__
Fastq_Pair
p411
(dp412
g7
g365
sg9
g397
sg11
S'1216301809A_GGCTAC_L002_R2_004.fastq'
p413
sg13
S'1216301809A_GGCTAC_L002_R1_004.fastq'
p414
sg15
S'004'
p415
sba(i__main__
Fastq_Pair
p416
(dp417
g7
g365
sg9
g397
sg11
S'1216301809A_GGCTAC_L002_R2_005.fastq'
p418
sg13
S'1216301809A_GGCTAC_L002_R1_005.fastq'
p419
sg15
S'005'
p420
sba(i__main__
Fastq_Pair
p421
(dp422
g7
g365
sg9
g397
sg11
S'1216301809A_GGCTAC_L002_R1_006.fastq'
p423
sg13
S'1216301809A_GGCTAC_L002_R2_006.fastq'
p424
sg15
S'006'
p425
sbasg63
S'C0MR3ACXX'
p426
sg65
g365
sg66
S'1216301809A'
p427
sba(i__main__
Sample
p428
(dp429
g3
(lp430
(i__main__
Fastq_Pair
p431
(dp432
g7
S'/nas/erik/48exomes/Project_BCH_pool1_r1/Sample_1216301783A'
p433
sg9
S'001'
p434
sg11
S'1216301783A_TGACCA_L001_R1_001.fastq'
p435
sg13
S'1216301783A_TGACCA_L001_R2_001.fastq'
p436
sg15
S'001'
p437
sba(i__main__
Fastq_Pair
p438
(dp439
g7
g433
sg9
g434
sg11
S'1216301783A_TGACCA_L001_R1_002.fastq'
p440
sg13
S'1216301783A_TGACCA_L001_R2_002.fastq'
p441
sg15
S'002'
p442
sba(i__main__
Fastq_Pair
p443
(dp444
g7
g433
sg9
g434
sg11
S'1216301783A_TGACCA_L001_R1_003.fastq'
p445
sg13
S'1216301783A_TGACCA_L001_R2_003.fastq'
p446
sg15
S'003'
p447
sba(i__main__
Fastq_Pair
p448
(dp449
g7
g433
sg9
g434
sg11
S'1216301783A_TGACCA_L001_R2_004.fastq'
p450
sg13
S'1216301783A_TGACCA_L001_R1_004.fastq'
p451
sg15
S'004'
p452
sba(i__main__
Fastq_Pair
p453
(dp454
g7
g433
sg9
g434
sg11
S'1216301783A_TGACCA_L001_R1_005.fastq'
p455
sg13
S'1216301783A_TGACCA_L001_R2_005.fastq'
p456
sg15
S'005'
p457
sba(i__main__
Fastq_Pair
p458
(dp459
g7
g433
sg9
g434
sg11
S'1216301783A_TGACCA_L001_R2_006.fastq'
p460
sg13
S'1216301783A_TGACCA_L001_R1_006.fastq'
p461
sg15
S'006'
p462
sba(i__main__
Fastq_Pair
p463
(dp464
g7
g433
sg9
S'002'
p465
sg11
S'1216301783A_TGACCA_L002_R2_001.fastq'
p466
sg13
S'1216301783A_TGACCA_L002_R1_001.fastq'
p467
sg15
S'001'
p468
sba(i__main__
Fastq_Pair
p469
(dp470
g7
g433
sg9
g465
sg11
S'1216301783A_TGACCA_L002_R1_002.fastq'
p471
sg13
S'1216301783A_TGACCA_L002_R2_002.fastq'
p472
sg15
S'002'
p473
sba(i__main__
Fastq_Pair
p474
(dp475
g7
g433
sg9
g465
sg11
S'1216301783A_TGACCA_L002_R1_003.fastq'
p476
sg13
S'1216301783A_TGACCA_L002_R2_003.fastq'
p477
sg15
S'003'
p478
sba(i__main__
Fastq_Pair
p479
(dp480
g7
g433
sg9
g465
sg11
S'1216301783A_TGACCA_L002_R2_004.fastq'
p481
sg13
S'1216301783A_TGACCA_L002_R1_004.fastq'
p482
sg15
S'004'
p483
sba(i__main__
Fastq_Pair
p484
(dp485
g7
g433
sg9
g465
sg11
S'1216301783A_TGACCA_L002_R1_005.fastq'
p486
sg13
S'1216301783A_TGACCA_L002_R2_005.fastq'
p487
sg15
S'005'
p488
sba(i__main__
Fastq_Pair
p489
(dp490
g7
g433
sg9
g465
sg11
S'1216301783A_TGACCA_L002_R2_006.fastq'
p491
sg13
S'1216301783A_TGACCA_L002_R1_006.fastq'
p492
sg15
S'006'
p493
sbasg63
S'C0MR3ACXX'
p494
sg65
g433
sg66
S'1216301783A'
p495
sba(i__main__
Sample
p496
(dp497
g3
(lp498
(i__main__
Fastq_Pair
p499
(dp500
g7
S'/nas/erik/48exomes/Project_BCH_pool1_r1/Sample_1216301804A'
p501
sg9
S'001'
p502
sg11
S'1216301804A_TAGCTT_L001_R1_001.fastq'
p503
sg13
S'1216301804A_TAGCTT_L001_R2_001.fastq'
p504
sg15
S'001'
p505
sba(i__main__
Fastq_Pair
p506
(dp507
g7
g501
sg9
g502
sg11
S'1216301804A_TAGCTT_L001_R1_002.fastq'
p508
sg13
S'1216301804A_TAGCTT_L001_R2_002.fastq'
p509
sg15
S'002'
p510
sba(i__main__
Fastq_Pair
p511
(dp512
g7
g501
sg9
g502
sg11
S'1216301804A_TAGCTT_L001_R1_003.fastq'
p513
sg13
S'1216301804A_TAGCTT_L001_R2_003.fastq'
p514
sg15
S'003'
p515
sba(i__main__
Fastq_Pair
p516
(dp517
g7
g501
sg9
g502
sg11
S'1216301804A_TAGCTT_L001_R2_004.fastq'
p518
sg13
S'1216301804A_TAGCTT_L001_R1_004.fastq'
p519
sg15
S'004'
p520
sba(i__main__
Fastq_Pair
p521
(dp522
g7
g501
sg9
g502
sg11
S'1216301804A_TAGCTT_L001_R2_005.fastq'
p523
sg13
S'1216301804A_TAGCTT_L001_R1_005.fastq'
p524
sg15
S'005'
p525
sba(i__main__
Fastq_Pair
p526
(dp527
g7
g501
sg9
g502
sg11
S'1216301804A_TAGCTT_L001_R2_006.fastq'
p528
sg13
S'1216301804A_TAGCTT_L001_R1_006.fastq'
p529
sg15
S'006'
p530
sba(i__main__
Fastq_Pair
p531
(dp532
g7
g501
sg9
S'002'
p533
sg11
S'1216301804A_TAGCTT_L002_R2_001.fastq'
p534
sg13
S'1216301804A_TAGCTT_L002_R1_001.fastq'
p535
sg15
S'001'
p536
sba(i__main__
Fastq_Pair
p537
(dp538
g7
g501
sg9
g533
sg11
S'1216301804A_TAGCTT_L002_R1_002.fastq'
p539
sg13
S'1216301804A_TAGCTT_L002_R2_002.fastq'
p540
sg15
S'002'
p541
sba(i__main__
Fastq_Pair
p542
(dp543
g7
g501
sg9
g533
sg11
S'1216301804A_TAGCTT_L002_R1_003.fastq'
p544
sg13
S'1216301804A_TAGCTT_L002_R2_003.fastq'
p545
sg15
S'003'
p546
sba(i__main__
Fastq_Pair
p547
(dp548
g7
g501
sg9
g533
sg11
S'1216301804A_TAGCTT_L002_R1_004.fastq'
p549
sg13
S'1216301804A_TAGCTT_L002_R2_004.fastq'
p550
sg15
S'004'
p551
sba(i__main__
Fastq_Pair
p552
(dp553
g7
g501
sg9
g533
sg11
S'1216301804A_TAGCTT_L002_R2_005.fastq'
p554
sg13
S'1216301804A_TAGCTT_L002_R1_005.fastq'
p555
sg15
S'005'
p556
sba(i__main__
Fastq_Pair
p557
(dp558
g7
g501
sg9
g533
sg11
S'1216301804A_TAGCTT_L002_R2_006.fastq'
p559
sg13
S'1216301804A_TAGCTT_L002_R1_006.fastq'
p560
sg15
S'006'
p561
sbasg63
S'C0MR3ACXX'
p562
sg65
g501
sg66
S'1216301804A'
p563
sba(i__main__
Sample
p564
(dp565
g3
(lp566
(i__main__
Fastq_Pair
p567
(dp568
g7
S'/nas/erik/48exomes/Project_BCH_pool1_r1/Sample_1216301814A'
p569
sg9
S'001'
p570
sg11
S'1216301814A_CGATGT_L001_R2_001.fastq'
p571
sg13
S'1216301814A_CGATGT_L001_R1_001.fastq'
p572
sg15
S'001'
p573
sba(i__main__
Fastq_Pair
p574
(dp575
g7
g569
sg9
S'002'
p576
sg11
S'1216301814A_CGATGT_L002_R2_001.fastq'
p577
sg13
S'1216301814A_CGATGT_L002_R1_001.fastq'
p578
sg15
S'001'
p579
sbasg63
S'C0MR3ACXX'
p580
sg65
g569
sg66
S'1216301814A'
p581
sba(i__main__
Sample
p582
(dp583
g3
(lp584
(i__main__
Fastq_Pair
p585
(dp586
g7
S'/nas/erik/48exomes/Project_BCH_pool1_r1/Sample_1216301799A'
p587
sg9
S'001'
p588
sg11
S'1216301799A_GATCAG_L001_R1_001.fastq'
p589
sg13
S'1216301799A_GATCAG_L001_R2_001.fastq'
p590
sg15
S'001'
p591
sba(i__main__
Fastq_Pair
p592
(dp593
g7
g587
sg9
g588
sg11
S'1216301799A_GATCAG_L001_R2_002.fastq'
p594
sg13
S'1216301799A_GATCAG_L001_R1_002.fastq'
p595
sg15
S'002'
p596
sba(i__main__
Fastq_Pair
p597
(dp598
g7
g587
sg9
g588
sg11
S'1216301799A_GATCAG_L001_R2_003.fastq'
p599
sg13
S'1216301799A_GATCAG_L001_R1_003.fastq'
p600
sg15
S'003'
p601
sba(i__main__
Fastq_Pair
p602
(dp603
g7
g587
sg9
g588
sg11
S'1216301799A_GATCAG_L001_R2_004.fastq'
p604
sg13
S'1216301799A_GATCAG_L001_R1_004.fastq'
p605
sg15
S'004'
p606
sba(i__main__
Fastq_Pair
p607
(dp608
g7
g587
sg9
S'002'
p609
sg11
S'1216301799A_GATCAG_L002_R1_001.fastq'
p610
sg13
S'1216301799A_GATCAG_L002_R2_001.fastq'
p611
sg15
S'001'
p612
sba(i__main__
Fastq_Pair
p613
(dp614
g7
g587
sg9
g609
sg11
S'1216301799A_GATCAG_L002_R2_002.fastq'
p615
sg13
S'1216301799A_GATCAG_L002_R1_002.fastq'
p616
sg15
S'002'
p617
sba(i__main__
Fastq_Pair
p618
(dp619
g7
g587
sg9
g609
sg11
S'1216301799A_GATCAG_L002_R1_003.fastq'
p620
sg13
S'1216301799A_GATCAG_L002_R2_003.fastq'
p621
sg15
S'003'
p622
sba(i__main__
Fastq_Pair
p623
(dp624
g7
g587
sg9
g609
sg11
S'1216301799A_GATCAG_L002_R2_004.fastq'
p625
sg13
S'1216301799A_GATCAG_L002_R1_004.fastq'
p626
sg15
S'004'
p627
sbasg63
S'C0MR3ACXX'
p628
sg65
g587
sg66
S'1216301799A'
p629
sba(i__main__
Sample
p630
(dp631
g3
(lp632
(i__main__
Fastq_Pair
p633
(dp634
g7
S'/nas/erik/48exomes/Project_BCH_pool1_r1/Sample_1216301794A'
p635
sg9
S'001'
p636
sg11
S'1216301794A_ACTTGA_L001_R2_001.fastq'
p637
sg13
S'1216301794A_ACTTGA_L001_R1_001.fastq'
p638
sg15
S'001'
p639
sba(i__main__
Fastq_Pair
p640
(dp641
g7
g635
sg9
g636
sg11
S'1216301794A_ACTTGA_L001_R1_002.fastq'
p642
sg13
S'1216301794A_ACTTGA_L001_R2_002.fastq'
p643
sg15
S'002'
p644
sba(i__main__
Fastq_Pair
p645
(dp646
g7
g635
sg9
g636
sg11
S'1216301794A_ACTTGA_L001_R2_003.fastq'
p647
sg13
S'1216301794A_ACTTGA_L001_R1_003.fastq'
p648
sg15
S'003'
p649
sba(i__main__
Fastq_Pair
p650
(dp651
g7
g635
sg9
g636
sg11
S'1216301794A_ACTTGA_L001_R2_004.fastq'
p652
sg13
S'1216301794A_ACTTGA_L001_R1_004.fastq'
p653
sg15
S'004'
p654
sba(i__main__
Fastq_Pair
p655
(dp656
g7
g635
sg9
g636
sg11
S'1216301794A_ACTTGA_L001_R1_005.fastq'
p657
sg13
S'1216301794A_ACTTGA_L001_R2_005.fastq'
p658
sg15
S'005'
p659
sba(i__main__
Fastq_Pair
p660
(dp661
g7
g635
sg9
g636
sg11
S'1216301794A_ACTTGA_L001_R1_006.fastq'
p662
sg13
S'1216301794A_ACTTGA_L001_R2_006.fastq'
p663
sg15
S'006'
p664
sba(i__main__
Fastq_Pair
p665
(dp666
g7
g635
sg9
S'002'
p667
sg11
S'1216301794A_ACTTGA_L002_R1_001.fastq'
p668
sg13
S'1216301794A_ACTTGA_L002_R2_001.fastq'
p669
sg15
S'001'
p670
sba(i__main__
Fastq_Pair
p671
(dp672
g7
g635
sg9
g667
sg11
S'1216301794A_ACTTGA_L002_R2_002.fastq'
p673
sg13
S'1216301794A_ACTTGA_L002_R1_002.fastq'
p674
sg15
S'002'
p675
sba(i__main__
Fastq_Pair
p676
(dp677
g7
g635
sg9
g667
sg11
S'1216301794A_ACTTGA_L002_R1_003.fastq'
p678
sg13
S'1216301794A_ACTTGA_L002_R2_003.fastq'
p679
sg15
S'003'
p680
sba(i__main__
Fastq_Pair
p681
(dp682
g7
g635
sg9
g667
sg11
S'1216301794A_ACTTGA_L002_R1_004.fastq'
p683
sg13
S'1216301794A_ACTTGA_L002_R2_004.fastq'
p684
sg15
S'004'
p685
sba(i__main__
Fastq_Pair
p686
(dp687
g7
g635
sg9
g667
sg11
S'1216301794A_ACTTGA_L002_R2_005.fastq'
p688
sg13
S'1216301794A_ACTTGA_L002_R1_005.fastq'
p689
sg15
S'005'
p690
sba(i__main__
Fastq_Pair
p691
(dp692
g7
g635
sg9
g667
sg11
S'1216301794A_ACTTGA_L002_R1_006.fastq'
p693
sg13
S'1216301794A_ACTTGA_L002_R2_006.fastq'
p694
sg15
S'006'
p695
sbasg63
S'C0MR3ACXX'
p696
sg65
g635
sg66
S'1216301794A'
p697
sba(i__main__
Sample
p698
(dp699
g3
(lp700
(i__main__
Fastq_Pair
p701
(dp702
g7
S'/nas/erik/48exomes/Project_BCH_pool1_r1/Sample_1216301786A'
p703
sg9
S'001'
p704
sg11
S'1216301786A_ACAGTG_L001_R2_001.fastq'
p705
sg13
S'1216301786A_ACAGTG_L001_R1_001.fastq'
p706
sg15
S'001'
p707
sba(i__main__
Fastq_Pair
p708
(dp709
g7
g703
sg9
g704
sg11
S'1216301786A_ACAGTG_L001_R2_002.fastq'
p710
sg13
S'1216301786A_ACAGTG_L001_R1_002.fastq'
p711
sg15
S'002'
p712
sba(i__main__
Fastq_Pair
p713
(dp714
g7
g703
sg9
g704
sg11
S'1216301786A_ACAGTG_L001_R2_003.fastq'
p715
sg13
S'1216301786A_ACAGTG_L001_R1_003.fastq'
p716
sg15
S'003'
p717
sba(i__main__
Fastq_Pair
p718
(dp719
g7
g703
sg9
g704
sg11
S'1216301786A_ACAGTG_L001_R1_004.fastq'
p720
sg13
S'1216301786A_ACAGTG_L001_R2_004.fastq'
p721
sg15
S'004'
p722
sba(i__main__
Fastq_Pair
p723
(dp724
g7
g703
sg9
g704
sg11
S'1216301786A_ACAGTG_L001_R1_005.fastq'
p725
sg13
S'1216301786A_ACAGTG_L001_R2_005.fastq'
p726
sg15
S'005'
p727
sba(i__main__
Fastq_Pair
p728
(dp729
g7
g703
sg9
g704
sg11
S'1216301786A_ACAGTG_L001_R2_006.fastq'
p730
sg13
S'1216301786A_ACAGTG_L001_R1_006.fastq'
p731
sg15
S'006'
p732
sba(i__main__
Fastq_Pair
p733
(dp734
g7
g703
sg9
S'002'
p735
sg11
S'1216301786A_ACAGTG_L002_R2_001.fastq'
p736
sg13
S'1216301786A_ACAGTG_L002_R1_001.fastq'
p737
sg15
S'001'
p738
sba(i__main__
Fastq_Pair
p739
(dp740
g7
g703
sg9
g735
sg11
S'1216301786A_ACAGTG_L002_R2_002.fastq'
p741
sg13
S'1216301786A_ACAGTG_L002_R1_002.fastq'
p742
sg15
S'002'
p743
sba(i__main__
Fastq_Pair
p744
(dp745
g7
g703
sg9
g735
sg11
S'1216301786A_ACAGTG_L002_R2_003.fastq'
p746
sg13
S'1216301786A_ACAGTG_L002_R1_003.fastq'
p747
sg15
S'003'
p748
sba(i__main__
Fastq_Pair
p749
(dp750
g7
g703
sg9
g735
sg11
S'1216301786A_ACAGTG_L002_R1_004.fastq'
p751
sg13
S'1216301786A_ACAGTG_L002_R2_004.fastq'
p752
sg15
S'004'
p753
sba(i__main__
Fastq_Pair
p754
(dp755
g7
g703
sg9
g735
sg11
S'1216301786A_ACAGTG_L002_R2_005.fastq'
p756
sg13
S'1216301786A_ACAGTG_L002_R1_005.fastq'
p757
sg15
S'005'
p758
sba(i__main__
Fastq_Pair
p759
(dp760
g7
g703
sg9
g735
sg11
S'1216301786A_ACAGTG_L002_R2_006.fastq'
p761
sg13
S'1216301786A_ACAGTG_L002_R1_006.fastq'
p762
sg15
S'006'
p763
sbasg63
S'C0MR3ACXX'
p764
sg65
g703
sg66
S'1216301786A'
p765
sba(i__main__
Sample
p766
(dp767
g3
(lp768
(i__main__
Fastq_Pair
p769
(dp770
g7
S'/nas/erik/48exomes/Project_BCH_pool2_r1/Sample_1215100712A'
p771
sg9
S'003'
p772
sg11
S'1215100712A_ACTTGA_L003_R1_001.fastq'
p773
sg13
S'1215100712A_ACTTGA_L003_R2_001.fastq'
p774
sg15
S'001'
p775
sba(i__main__
Fastq_Pair
p776
(dp777
g7
g771
sg9
g772
sg11
S'1215100712A_ACTTGA_L003_R1_002.fastq'
p778
sg13
S'1215100712A_ACTTGA_L003_R2_002.fastq'
p779
sg15
S'002'
p780
sba(i__main__
Fastq_Pair
p781
(dp782
g7
g771
sg9
g772
sg11
S'1215100712A_ACTTGA_L003_R2_003.fastq'
p783
sg13
S'1215100712A_ACTTGA_L003_R1_003.fastq'
p784
sg15
S'003'
p785
sba(i__main__
Fastq_Pair
p786
(dp787
g7
g771
sg9
g772
sg11
S'1215100712A_ACTTGA_L003_R1_004.fastq'
p788
sg13
S'1215100712A_ACTTGA_L003_R2_004.fastq'
p789
sg15
S'004'
p790
sba(i__main__
Fastq_Pair
p791
(dp792
g7
g771
sg9
g772
sg11
S'1215100712A_ACTTGA_L003_R2_005.fastq'
p793
sg13
S'1215100712A_ACTTGA_L003_R1_005.fastq'
p794
sg15
S'005'
p795
sba(i__main__
Fastq_Pair
p796
(dp797
g7
g771
sg9
S'004'
p798
sg11
S'1215100712A_ACTTGA_L004_R1_001.fastq'
p799
sg13
S'1215100712A_ACTTGA_L004_R2_001.fastq'
p800
sg15
S'001'
p801
sba(i__main__
Fastq_Pair
p802
(dp803
g7
g771
sg9
g798
sg11
S'1215100712A_ACTTGA_L004_R2_002.fastq'
p804
sg13
S'1215100712A_ACTTGA_L004_R1_002.fastq'
p805
sg15
S'002'
p806
sba(i__main__
Fastq_Pair
p807
(dp808
g7
g771
sg9
g798
sg11
S'1215100712A_ACTTGA_L004_R1_003.fastq'
p809
sg13
S'1215100712A_ACTTGA_L004_R2_003.fastq'
p810
sg15
S'003'
p811
sba(i__main__
Fastq_Pair
p812
(dp813
g7
g771
sg9
g798
sg11
S'1215100712A_ACTTGA_L004_R2_004.fastq'
p814
sg13
S'1215100712A_ACTTGA_L004_R1_004.fastq'
p815
sg15
S'004'
p816
sba(i__main__
Fastq_Pair
p817
(dp818
g7
g771
sg9
g798
sg11
S'1215100712A_ACTTGA_L004_R1_005.fastq'
p819
sg13
S'1215100712A_ACTTGA_L004_R2_005.fastq'
p820
sg15
S'005'
p821
sbasg63
S'C0MR3ACXX'
p822
sg65
g771
sg66
S'1215100712A'
p823
sba(i__main__
Sample
p824
(dp825
g3
(lp826
(i__main__
Fastq_Pair
p827
(dp828
g7
S'/nas/erik/48exomes/Project_BCH_pool2_r1/Sample_1215100736A'
p829
sg9
S'003'
p830
sg11
S'1215100736A_GGCTAC_L003_R1_001.fastq'
p831
sg13
S'1215100736A_GGCTAC_L003_R2_001.fastq'
p832
sg15
S'001'
p833
sba(i__main__
Fastq_Pair
p834
(dp835
g7
g829
sg9
g830
sg11
S'1215100736A_GGCTAC_L003_R2_002.fastq'
p836
sg13
S'1215100736A_GGCTAC_L003_R1_002.fastq'
p837
sg15
S'002'
p838
sba(i__main__
Fastq_Pair
p839
(dp840
g7
g829
sg9
g830
sg11
S'1215100736A_GGCTAC_L003_R2_003.fastq'
p841
sg13
S'1215100736A_GGCTAC_L003_R1_003.fastq'
p842
sg15
S'003'
p843
sba(i__main__
Fastq_Pair
p844
(dp845
g7
g829
sg9
S'004'
p846
sg11
S'1215100736A_GGCTAC_L004_R2_001.fastq'
p847
sg13
S'1215100736A_GGCTAC_L004_R1_001.fastq'
p848
sg15
S'001'
p849
sba(i__main__
Fastq_Pair
p850
(dp851
g7
g829
sg9
g846
sg11
S'1215100736A_GGCTAC_L004_R1_002.fastq'
p852
sg13
S'1215100736A_GGCTAC_L004_R2_002.fastq'
p853
sg15
S'002'
p854
sba(i__main__
Fastq_Pair
p855
(dp856
g7
g829
sg9
g846
sg11
S'1215100736A_GGCTAC_L004_R1_003.fastq'
p857
sg13
S'1215100736A_GGCTAC_L004_R2_003.fastq'
p858
sg15
S'003'
p859
sbasg63
S'C0MR3ACXX'
p860
sg65
g829
sg66
S'1215100736A'
p861
sba(i__main__
Sample
p862
(dp863
g3
(lp864
(i__main__
Fastq_Pair
p865
(dp866
g7
S'/nas/erik/48exomes/Project_BCH_pool2_r1/Sample_1215100717A'
p867
sg9
S'003'
p868
sg11
S'1215100717A_TAGCTT_L003_R1_001.fastq'
p869
sg13
S'1215100717A_TAGCTT_L003_R2_001.fastq'
p870
sg15
S'001'
p871
sba(i__main__
Fastq_Pair
p872
(dp873
g7
g867
sg9
g868
sg11
S'1215100717A_TAGCTT_L003_R1_002.fastq'
p874
sg13
S'1215100717A_TAGCTT_L003_R2_002.fastq'
p875
sg15
S'002'
p876
sba(i__main__
Fastq_Pair
p877
(dp878
g7
g867
sg9
g868
sg11
S'1215100717A_TAGCTT_L003_R1_003.fastq'
p879
sg13
S'1215100717A_TAGCTT_L003_R2_003.fastq'
p880
sg15
S'003'
p881
sba(i__main__
Fastq_Pair
p882
(dp883
g7
g867
sg9
g868
sg11
S'1215100717A_TAGCTT_L003_R2_004.fastq'
p884
sg13
S'1215100717A_TAGCTT_L003_R1_004.fastq'
p885
sg15
S'004'
p886
sba(i__main__
Fastq_Pair
p887
(dp888
g7
g867
sg9
S'004'
p889
sg11
S'1215100717A_TAGCTT_L004_R2_001.fastq'
p890
sg13
S'1215100717A_TAGCTT_L004_R1_001.fastq'
p891
sg15
S'001'
p892
sba(i__main__
Fastq_Pair
p893
(dp894
g7
g867
sg9
g889
sg11
S'1215100717A_TAGCTT_L004_R2_002.fastq'
p895
sg13
S'1215100717A_TAGCTT_L004_R1_002.fastq'
p896
sg15
S'002'
p897
sba(i__main__
Fastq_Pair
p898
(dp899
g7
g867
sg9
g889
sg11
S'1215100717A_TAGCTT_L004_R1_003.fastq'
p900
sg13
S'1215100717A_TAGCTT_L004_R2_003.fastq'
p901
sg15
S'003'
p902
sba(i__main__
Fastq_Pair
p903
(dp904
g7
g867
sg9
g889
sg11
S'1215100717A_TAGCTT_L004_R2_004.fastq'
p905
sg13
S'1215100717A_TAGCTT_L004_R1_004.fastq'
p906
sg15
S'004'
p907
sbasg63
S'C0MR3ACXX'
p908
sg65
g867
sg66
S'1215100717A'
p909
sba(i__main__
Sample
p910
(dp911
g3
(lp912
(i__main__
Fastq_Pair
p913
(dp914
g7
S'/nas/erik/48exomes/Project_BCH_pool2_r1/Sample_1215100715A'
p915
sg9
S'003'
p916
sg11
S'1215100715A_GATCAG_L003_R2_001.fastq'
p917
sg13
S'1215100715A_GATCAG_L003_R1_001.fastq'
p918
sg15
S'001'
p919
sba(i__main__
Fastq_Pair
p920
(dp921
g7
g915
sg9
g916
sg11
S'1215100715A_GATCAG_L003_R2_002.fastq'
p922
sg13
S'1215100715A_GATCAG_L003_R1_002.fastq'
p923
sg15
S'002'
p924
sba(i__main__
Fastq_Pair
p925
(dp926
g7
g915
sg9
g916
sg11
S'1215100715A_GATCAG_L003_R1_003.fastq'
p927
sg13
S'1215100715A_GATCAG_L003_R2_003.fastq'
p928
sg15
S'003'
p929
sba(i__main__
Fastq_Pair
p930
(dp931
g7
g915
sg9
S'004'
p932
sg11
S'1215100715A_GATCAG_L004_R2_001.fastq'
p933
sg13
S'1215100715A_GATCAG_L004_R1_001.fastq'
p934
sg15
S'001'
p935
sba(i__main__
Fastq_Pair
p936
(dp937
g7
g915
sg9
g932
sg11
S'1215100715A_GATCAG_L004_R1_002.fastq'
p938
sg13
S'1215100715A_GATCAG_L004_R2_002.fastq'
p939
sg15
S'002'
p940
sba(i__main__
Fastq_Pair
p941
(dp942
g7
g915
sg9
g932
sg11
S'1215100715A_GATCAG_L004_R1_003.fastq'
p943
sg13
S'1215100715A_GATCAG_L004_R2_003.fastq'
p944
sg15
S'003'
p945
sbasg63
S'C0MR3ACXX'
p946
sg65
g915
sg66
S'1215100715A'
p947
sba(i__main__
Sample
p948
(dp949
g3
(lp950
(i__main__
Fastq_Pair
p951
(dp952
g7
S'/nas/erik/48exomes/Project_BCH_pool2_r1/Sample_1215100744A'
p953
sg9
S'003'
p954
sg11
S'1215100744A_CAAAAG_L003_R1_001.fastq'
p955
sg13
S'1215100744A_CAAAAG_L003_R2_001.fastq'
p956
sg15
S'001'
p957
sba(i__main__
Fastq_Pair
p958
(dp959
g7
g953
sg9
g954
sg11
S'1215100744A_CAAAAG_L003_R2_002.fastq'
p960
sg13
S'1215100744A_CAAAAG_L003_R1_002.fastq'
p961
sg15
S'002'
p962
sba(i__main__
Fastq_Pair
p963
(dp964
g7
g953
sg9
g954
sg11
S'1215100744A_CAAAAG_L003_R1_003.fastq'
p965
sg13
S'1215100744A_CAAAAG_L003_R2_003.fastq'
p966
sg15
S'003'
p967
sba(i__main__
Fastq_Pair
p968
(dp969
g7
g953
sg9
S'004'
p970
sg11
S'1215100744A_CAAAAG_L004_R1_001.fastq'
p971
sg13
S'1215100744A_CAAAAG_L004_R2_001.fastq'
p972
sg15
S'001'
p973
sba(i__main__
Fastq_Pair
p974
(dp975
g7
g953
sg9
g970
sg11
S'1215100744A_CAAAAG_L004_R2_002.fastq'
p976
sg13
S'1215100744A_CAAAAG_L004_R1_002.fastq'
p977
sg15
S'002'
p978
sba(i__main__
Fastq_Pair
p979
(dp980
g7
g953
sg9
g970
sg11
S'1215100744A_CAAAAG_L004_R1_003.fastq'
p981
sg13
S'1215100744A_CAAAAG_L004_R2_003.fastq'
p982
sg15
S'003'
p983
sbasg63
S'C0MR3ACXX'
p984
sg65
g953
sg66
S'1215100744A'
p985
sba(i__main__
Sample
p986
(dp987
g3
(lp988
(i__main__
Fastq_Pair
p989
(dp990
g7
S'/nas/erik/48exomes/Project_BCH_pool2_r1/Sample_1215100751A'
p991
sg9
S'003'
p992
sg11
S'1215100751A_AAAGCA_L003_R2_001.fastq'
p993
sg13
S'1215100751A_AAAGCA_L003_R1_001.fastq'
p994
sg15
S'001'
p995
sba(i__main__
Fastq_Pair
p996
(dp997
g7
g991
sg9
g992
sg11
S'1215100751A_AAAGCA_L003_R2_002.fastq'
p998
sg13
S'1215100751A_AAAGCA_L003_R1_002.fastq'
p999
sg15
S'002'
p1000
sba(i__main__
Fastq_Pair
p1001
(dp1002
g7
g991
sg9
g992
sg11
S'1215100751A_AAAGCA_L003_R2_003.fastq'
p1003
sg13
S'1215100751A_AAAGCA_L003_R1_003.fastq'
p1004
sg15
S'003'
p1005
sba(i__main__
Fastq_Pair
p1006
(dp1007
g7
g991
sg9
g992
sg11
S'1215100751A_AAAGCA_L003_R2_004.fastq'
p1008
sg13
S'1215100751A_AAAGCA_L003_R1_004.fastq'
p1009
sg15
S'004'
p1010
sba(i__main__
Fastq_Pair
p1011
(dp1012
g7
g991
sg9
S'004'
p1013
sg11
S'1215100751A_AAAGCA_L004_R2_001.fastq'
p1014
sg13
S'1215100751A_AAAGCA_L004_R1_001.fastq'
p1015
sg15
S'001'
p1016
sba(i__main__
Fastq_Pair
p1017
(dp1018
g7
g991
sg9
g1013
sg11
S'1215100751A_AAAGCA_L004_R2_002.fastq'
p1019
sg13
S'1215100751A_AAAGCA_L004_R1_002.fastq'
p1020
sg15
S'002'
p1021
sba(i__main__
Fastq_Pair
p1022
(dp1023
g7
g991
sg9
g1013
sg11
S'1215100751A_AAAGCA_L004_R2_003.fastq'
p1024
sg13
S'1215100751A_AAAGCA_L004_R1_003.fastq'
p1025
sg15
S'003'
p1026
sba(i__main__
Fastq_Pair
p1027
(dp1028
g7
g991
sg9
g1013
sg11
S'1215100751A_AAAGCA_L004_R2_004.fastq'
p1029
sg13
S'1215100751A_AAAGCA_L004_R1_004.fastq'
p1030
sg15
S'004'
p1031
sbasg63
S'C0MR3ACXX'
p1032
sg65
g991
sg66
S'1215100751A'
p1033
sba(i__main__
Sample
p1034
(dp1035
g3
(lp1036
(i__main__
Fastq_Pair
p1037
(dp1038
g7
S'/nas/erik/48exomes/Project_BCH_pool2_r1/Sample_1215001893A'
p1039
sg9
S'003'
p1040
sg11
S'1215001893A_ACAGTG_L003_R2_001.fastq'
p1041
sg13
S'1215001893A_ACAGTG_L003_R1_001.fastq'
p1042
sg15
S'001'
p1043
sba(i__main__
Fastq_Pair
p1044
(dp1045
g7
g1039
sg9
g1040
sg11
S'1215001893A_ACAGTG_L003_R1_002.fastq'
p1046
sg13
S'1215001893A_ACAGTG_L003_R2_002.fastq'
p1047
sg15
S'002'
p1048
sba(i__main__
Fastq_Pair
p1049
(dp1050
g7
g1039
sg9
g1040
sg11
S'1215001893A_ACAGTG_L003_R2_003.fastq'
p1051
sg13
S'1215001893A_ACAGTG_L003_R1_003.fastq'
p1052
sg15
S'003'
p1053
sba(i__main__
Fastq_Pair
p1054
(dp1055
g7
g1039
sg9
g1040
sg11
S'1215001893A_ACAGTG_L003_R1_004.fastq'
p1056
sg13
S'1215001893A_ACAGTG_L003_R2_004.fastq'
p1057
sg15
S'004'
p1058
sba(i__main__
Fastq_Pair
p1059
(dp1060
g7
g1039
sg9
g1040
sg11
S'1215001893A_ACAGTG_L003_R1_005.fastq'
p1061
sg13
S'1215001893A_ACAGTG_L003_R2_005.fastq'
p1062
sg15
S'005'
p1063
sba(i__main__
Fastq_Pair
p1064
(dp1065
g7
g1039
sg9
S'004'
p1066
sg11
S'1215001893A_ACAGTG_L004_R2_001.fastq'
p1067
sg13
S'1215001893A_ACAGTG_L004_R1_001.fastq'
p1068
sg15
S'001'
p1069
sba(i__main__
Fastq_Pair
p1070
(dp1071
g7
g1039
sg9
g1066
sg11
S'1215001893A_ACAGTG_L004_R2_002.fastq'
p1072
sg13
S'1215001893A_ACAGTG_L004_R1_002.fastq'
p1073
sg15
S'002'
p1074
sba(i__main__
Fastq_Pair
p1075
(dp1076
g7
g1039
sg9
g1066
sg11
S'1215001893A_ACAGTG_L004_R1_003.fastq'
p1077
sg13
S'1215001893A_ACAGTG_L004_R2_003.fastq'
p1078
sg15
S'003'
p1079
sba(i__main__
Fastq_Pair
p1080
(dp1081
g7
g1039
sg9
g1066
sg11
S'1215001893A_ACAGTG_L004_R2_004.fastq'
p1082
sg13
S'1215001893A_ACAGTG_L004_R1_004.fastq'
p1083
sg15
S'004'
p1084
sba(i__main__
Fastq_Pair
p1085
(dp1086
g7
g1039
sg9
g1066
sg11
S'1215001893A_ACAGTG_L004_R2_005.fastq'
p1087
sg13
S'1215001893A_ACAGTG_L004_R1_005.fastq'
p1088
sg15
S'005'
p1089
sbasg63
S'C0MR3ACXX'
p1090
sg65
g1039
sg66
S'1215001893A'
p1091
sba(i__main__
Sample
p1092
(dp1093
g3
(lp1094
(i__main__
Fastq_Pair
p1095
(dp1096
g7
S'/nas/erik/48exomes/Project_BCH_pool2_r1/Sample_1215100750A'
p1097
sg9
S'003'
p1098
sg11
S'1215100750A_GAAACC_L003_R2_001.fastq'
p1099
sg13
S'1215100750A_GAAACC_L003_R1_001.fastq'
p1100
sg15
S'001'
p1101
sba(i__main__
Fastq_Pair
p1102
(dp1103
g7
g1097
sg9
g1098
sg11
S'1215100750A_GAAACC_L003_R1_002.fastq'
p1104
sg13
S'1215100750A_GAAACC_L003_R2_002.fastq'
p1105
sg15
S'002'
p1106
sba(i__main__
Fastq_Pair
p1107
(dp1108
g7
g1097
sg9
g1098
sg11
S'1215100750A_GAAACC_L003_R1_003.fastq'
p1109
sg13
S'1215100750A_GAAACC_L003_R2_003.fastq'
p1110
sg15
S'003'
p1111
sba(i__main__
Fastq_Pair
p1112
(dp1113
g7
g1097
sg9
g1098
sg11
S'1215100750A_GAAACC_L003_R1_004.fastq'
p1114
sg13
S'1215100750A_GAAACC_L003_R2_004.fastq'
p1115
sg15
S'004'
p1116
sba(i__main__
Fastq_Pair
p1117
(dp1118
g7
g1097
sg9
S'004'
p1119
sg11
S'1215100750A_GAAACC_L004_R2_001.fastq'
p1120
sg13
S'1215100750A_GAAACC_L004_R1_001.fastq'
p1121
sg15
S'001'
p1122
sba(i__main__
Fastq_Pair
p1123
(dp1124
g7
g1097
sg9
g1119
sg11
S'1215100750A_GAAACC_L004_R2_002.fastq'
p1125
sg13
S'1215100750A_GAAACC_L004_R1_002.fastq'
p1126
sg15
S'002'
p1127
sba(i__main__
Fastq_Pair
p1128
(dp1129
g7
g1097
sg9
g1119
sg11
S'1215100750A_GAAACC_L004_R2_003.fastq'
p1130
sg13
S'1215100750A_GAAACC_L004_R1_003.fastq'
p1131
sg15
S'003'
p1132
sba(i__main__
Fastq_Pair
p1133
(dp1134
g7
g1097
sg9
g1119
sg11
S'1215100750A_GAAACC_L004_R2_004.fastq'
p1135
sg13
S'1215100750A_GAAACC_L004_R1_004.fastq'
p1136
sg15
S'004'
p1137
sbasg63
S'C0MR3ACXX'
p1138
sg65
g1097
sg66
S'1215100750A'
p1139
sba(i__main__
Sample
p1140
(dp1141
g3
(lp1142
(i__main__
Fastq_Pair
p1143
(dp1144
g7
S'/nas/erik/48exomes/Project_BCH_pool2_r1/Sample_1215100742A'
p1145
sg9
S'003'
p1146
sg11
S'1215100742A_CTTGTA_L003_R1_001.fastq'
p1147
sg13
S'1215100742A_CTTGTA_L003_R2_001.fastq'
p1148
sg15
S'001'
p1149
sba(i__main__
Fastq_Pair
p1150
(dp1151
g7
g1145
sg9
g1146
sg11
S'1215100742A_CTTGTA_L003_R2_002.fastq'
p1152
sg13
S'1215100742A_CTTGTA_L003_R1_002.fastq'
p1153
sg15
S'002'
p1154
sba(i__main__
Fastq_Pair
p1155
(dp1156
g7
g1145
sg9
g1146
sg11
S'1215100742A_CTTGTA_L003_R1_003.fastq'
p1157
sg13
S'1215100742A_CTTGTA_L003_R2_003.fastq'
p1158
sg15
S'003'
p1159
sba(i__main__
Fastq_Pair
p1160
(dp1161
g7
g1145
sg9
S'004'
p1162
sg11
S'1215100742A_CTTGTA_L004_R1_001.fastq'
p1163
sg13
S'1215100742A_CTTGTA_L004_R2_001.fastq'
p1164
sg15
S'001'
p1165
sba(i__main__
Fastq_Pair
p1166
(dp1167
g7
g1145
sg9
g1162
sg11
S'1215100742A_CTTGTA_L004_R1_002.fastq'
p1168
sg13
S'1215100742A_CTTGTA_L004_R2_002.fastq'
p1169
sg15
S'002'
p1170
sba(i__main__
Fastq_Pair
p1171
(dp1172
g7
g1145
sg9
g1162
sg11
S'1215100742A_CTTGTA_L004_R2_003.fastq'
p1173
sg13
S'1215100742A_CTTGTA_L004_R1_003.fastq'
p1174
sg15
S'003'
p1175
sbasg63
S'C0MR3ACXX'
p1176
sg65
g1145
sg66
S'1215100742A'
p1177
sba(i__main__
Sample
p1178
(dp1179
g3
(lp1180
(i__main__
Fastq_Pair
p1181
(dp1182
g7
S'/nas/erik/48exomes/Project_BCH_pool2_r1/Sample_1215001903A'
p1183
sg9
S'003'
p1184
sg11
S'1215001903A_GCCAAT_L003_R2_001.fastq'
p1185
sg13
S'1215001903A_GCCAAT_L003_R1_001.fastq'
p1186
sg15
S'001'
p1187
sba(i__main__
Fastq_Pair
p1188
(dp1189
g7
g1183
sg9
g1184
sg11
S'1215001903A_GCCAAT_L003_R2_002.fastq'
p1190
sg13
S'1215001903A_GCCAAT_L003_R1_002.fastq'
p1191
sg15
S'002'
p1192
sba(i__main__
Fastq_Pair
p1193
(dp1194
g7
g1183
sg9
g1184
sg11
S'1215001903A_GCCAAT_L003_R1_003.fastq'
p1195
sg13
S'1215001903A_GCCAAT_L003_R2_003.fastq'
p1196
sg15
S'003'
p1197
sba(i__main__
Fastq_Pair
p1198
(dp1199
g7
g1183
sg9
g1184
sg11
S'1215001903A_GCCAAT_L003_R2_004.fastq'
p1200
sg13
S'1215001903A_GCCAAT_L003_R1_004.fastq'
p1201
sg15
S'004'
p1202
sba(i__main__
Fastq_Pair
p1203
(dp1204
g7
g1183
sg9
g1184
sg11
S'1215001903A_GCCAAT_L003_R1_005.fastq'
p1205
sg13
S'1215001903A_GCCAAT_L003_R2_005.fastq'
p1206
sg15
S'005'
p1207
sba(i__main__
Fastq_Pair
p1208
(dp1209
g7
g1183
sg9
g1184
sg11
S'1215001903A_GCCAAT_L003_R1_006.fastq'
p1210
sg13
S'1215001903A_GCCAAT_L003_R2_006.fastq'
p1211
sg15
S'006'
p1212
sba(i__main__
Fastq_Pair
p1213
(dp1214
g7
g1183
sg9
S'004'
p1215
sg11
S'1215001903A_GCCAAT_L004_R1_001.fastq'
p1216
sg13
S'1215001903A_GCCAAT_L004_R2_001.fastq'
p1217
sg15
S'001'
p1218
sba(i__main__
Fastq_Pair
p1219
(dp1220
g7
g1183
sg9
g1215
sg11
S'1215001903A_GCCAAT_L004_R1_002.fastq'
p1221
sg13
S'1215001903A_GCCAAT_L004_R2_002.fastq'
p1222
sg15
S'002'
p1223
sba(i__main__
Fastq_Pair
p1224
(dp1225
g7
g1183
sg9
g1215
sg11
S'1215001903A_GCCAAT_L004_R1_003.fastq'
p1226
sg13
S'1215001903A_GCCAAT_L004_R2_003.fastq'
p1227
sg15
S'003'
p1228
sba(i__main__
Fastq_Pair
p1229
(dp1230
g7
g1183
sg9
g1215
sg11
S'1215001903A_GCCAAT_L004_R1_004.fastq'
p1231
sg13
S'1215001903A_GCCAAT_L004_R2_004.fastq'
p1232
sg15
S'004'
p1233
sba(i__main__
Fastq_Pair
p1234
(dp1235
g7
g1183
sg9
g1215
sg11
S'1215001903A_GCCAAT_L004_R2_005.fastq'
p1236
sg13
S'1215001903A_GCCAAT_L004_R1_005.fastq'
p1237
sg15
S'005'
p1238
sba(i__main__
Fastq_Pair
p1239
(dp1240
g7
g1183
sg9
g1215
sg11
S'1215001903A_GCCAAT_L004_R2_006.fastq'
p1241
sg13
S'1215001903A_GCCAAT_L004_R1_006.fastq'
p1242
sg15
S'006'
p1243
sbasg63
S'C0MR3ACXX'
p1244
sg65
g1183
sg66
S'1215001903A'
p1245
sba(i__main__
Sample
p1246
(dp1247
g3
(lp1248
(i__main__
Fastq_Pair
p1249
(dp1250
g7
S'/nas/erik/48exomes/Project_BCH_pool2_r1/Sample_1215100743A'
p1251
sg9
S'003'
p1252
sg11
S'1215100743A_AAACAT_L003_R1_001.fastq'
p1253
sg13
S'1215100743A_AAACAT_L003_R2_001.fastq'
p1254
sg15
S'001'
p1255
sba(i__main__
Fastq_Pair
p1256
(dp1257
g7
g1251
sg9
g1252
sg11
S'1215100743A_AAACAT_L003_R1_002.fastq'
p1258
sg13
S'1215100743A_AAACAT_L003_R2_002.fastq'
p1259
sg15
S'002'
p1260
sba(i__main__
Fastq_Pair
p1261
(dp1262
g7
g1251
sg9
g1252
sg11
S'1215100743A_AAACAT_L003_R2_003.fastq'
p1263
sg13
S'1215100743A_AAACAT_L003_R1_003.fastq'
p1264
sg15
S'003'
p1265
sba(i__main__
Fastq_Pair
p1266
(dp1267
g7
g1251
sg9
g1252
sg11
S'1215100743A_AAACAT_L003_R2_004.fastq'
p1268
sg13
S'1215100743A_AAACAT_L003_R1_004.fastq'
p1269
sg15
S'004'
p1270
sba(i__main__
Fastq_Pair
p1271
(dp1272
g7
g1251
sg9
S'004'
p1273
sg11
S'1215100743A_AAACAT_L004_R1_001.fastq'
p1274
sg13
S'1215100743A_AAACAT_L004_R2_001.fastq'
p1275
sg15
S'001'
p1276
sba(i__main__
Fastq_Pair
p1277
(dp1278
g7
g1251
sg9
g1273
sg11
S'1215100743A_AAACAT_L004_R1_002.fastq'
p1279
sg13
S'1215100743A_AAACAT_L004_R2_002.fastq'
p1280
sg15
S'002'
p1281
sba(i__main__
Fastq_Pair
p1282
(dp1283
g7
g1251
sg9
g1273
sg11
S'1215100743A_AAACAT_L004_R2_003.fastq'
p1284
sg13
S'1215100743A_AAACAT_L004_R1_003.fastq'
p1285
sg15
S'003'
p1286
sba(i__main__
Fastq_Pair
p1287
(dp1288
g7
g1251
sg9
g1273
sg11
S'1215100743A_AAACAT_L004_R2_004.fastq'
p1289
sg13
S'1215100743A_AAACAT_L004_R1_004.fastq'
p1290
sg15
S'004'
p1291
sbasg63
S'C0MR3ACXX'
p1292
sg65
g1251
sg66
S'1215100743A'
p1293
sba(i__main__
Sample
p1294
(dp1295
g3
(lp1296
(i__main__
Fastq_Pair
p1297
(dp1298
g7
S'/nas/erik/48exomes/Project_BCH_pool2_r1/Sample_1215100707A'
p1299
sg9
S'003'
p1300
sg11
S'1215100707A_CAGATC_L003_R2_001.fastq'
p1301
sg13
S'1215100707A_CAGATC_L003_R1_001.fastq'
p1302
sg15
S'001'
p1303
sba(i__main__
Fastq_Pair
p1304
(dp1305
g7
g1299
sg9
g1300
sg11
S'1215100707A_CAGATC_L003_R2_002.fastq'
p1306
sg13
S'1215100707A_CAGATC_L003_R1_002.fastq'
p1307
sg15
S'002'
p1308
sba(i__main__
Fastq_Pair
p1309
(dp1310
g7
g1299
sg9
g1300
sg11
S'1215100707A_CAGATC_L003_R1_003.fastq'
p1311
sg13
S'1215100707A_CAGATC_L003_R2_003.fastq'
p1312
sg15
S'003'
p1313
sba(i__main__
Fastq_Pair
p1314
(dp1315
g7
g1299
sg9
g1300
sg11
S'1215100707A_CAGATC_L003_R1_004.fastq'
p1316
sg13
S'1215100707A_CAGATC_L003_R2_004.fastq'
p1317
sg15
S'004'
p1318
sba(i__main__
Fastq_Pair
p1319
(dp1320
g7
g1299
sg9
g1300
sg11
S'1215100707A_CAGATC_L003_R2_005.fastq'
p1321
sg13
S'1215100707A_CAGATC_L003_R1_005.fastq'
p1322
sg15
S'005'
p1323
sba(i__main__
Fastq_Pair
p1324
(dp1325
g7
g1299
sg9
g1300
sg11
S'1215100707A_CAGATC_L003_R2_006.fastq'
p1326
sg13
S'1215100707A_CAGATC_L003_R1_006.fastq'
p1327
sg15
S'006'
p1328
sba(i__main__
Fastq_Pair
p1329
(dp1330
g7
g1299
sg9
S'004'
p1331
sg11
S'1215100707A_CAGATC_L004_R1_001.fastq'
p1332
sg13
S'1215100707A_CAGATC_L004_R2_001.fastq'
p1333
sg15
S'001'
p1334
sba(i__main__
Fastq_Pair
p1335
(dp1336
g7
g1299
sg9
g1331
sg11
S'1215100707A_CAGATC_L004_R2_002.fastq'
p1337
sg13
S'1215100707A_CAGATC_L004_R1_002.fastq'
p1338
sg15
S'002'
p1339
sba(i__main__
Fastq_Pair
p1340
(dp1341
g7
g1299
sg9
g1331
sg11
S'1215100707A_CAGATC_L004_R2_003.fastq'
p1342
sg13
S'1215100707A_CAGATC_L004_R1_003.fastq'
p1343
sg15
S'003'
p1344
sba(i__main__
Fastq_Pair
p1345
(dp1346
g7
g1299
sg9
g1331
sg11
S'1215100707A_CAGATC_L004_R2_004.fastq'
p1347
sg13
S'1215100707A_CAGATC_L004_R1_004.fastq'
p1348
sg15
S'004'
p1349
sba(i__main__
Fastq_Pair
p1350
(dp1351
g7
g1299
sg9
g1331
sg11
S'1215100707A_CAGATC_L004_R1_005.fastq'
p1352
sg13
S'1215100707A_CAGATC_L004_R2_005.fastq'
p1353
sg15
S'005'
p1354
sbasg63
S'C0MR3ACXX'
p1355
sg65
g1299
sg66
S'1215100707A'
p1356
sba(i__main__
Sample
p1357
(dp1358
g3
(lp1359
(i__main__
Fastq_Pair
p1360
(dp1361
g7
S'/nas/erik/48exomes/Project_BCH_pool3_r1/Sample_1216301824A'
p1362
sg9
S'005'
p1363
sg11
S'1216301824A_AAAGCA_L005_R2_001.fastq'
p1364
sg13
S'1216301824A_AAAGCA_L005_R1_001.fastq'
p1365
sg15
S'001'
p1366
sba(i__main__
Fastq_Pair
p1367
(dp1368
g7
g1362
sg9
g1363
sg11
S'1216301824A_AAAGCA_L005_R1_002.fastq'
p1369
sg13
S'1216301824A_AAAGCA_L005_R2_002.fastq'
p1370
sg15
S'002'
p1371
sba(i__main__
Fastq_Pair
p1372
(dp1373
g7
g1362
sg9
g1363
sg11
S'1216301824A_AAAGCA_L005_R2_003.fastq'
p1374
sg13
S'1216301824A_AAAGCA_L005_R1_003.fastq'
p1375
sg15
S'003'
p1376
sba(i__main__
Fastq_Pair
p1377
(dp1378
g7
g1362
sg9
g1363
sg11
S'1216301824A_AAAGCA_L005_R1_004.fastq'
p1379
sg13
S'1216301824A_AAAGCA_L005_R2_004.fastq'
p1380
sg15
S'004'
p1381
sba(i__main__
Fastq_Pair
p1382
(dp1383
g7
g1362
sg9
S'006'
p1384
sg11
S'1216301824A_AAAGCA_L006_R1_001.fastq'
p1385
sg13
S'1216301824A_AAAGCA_L006_R2_001.fastq'
p1386
sg15
S'001'
p1387
sba(i__main__
Fastq_Pair
p1388
(dp1389
g7
g1362
sg9
g1384
sg11
S'1216301824A_AAAGCA_L006_R2_002.fastq'
p1390
sg13
S'1216301824A_AAAGCA_L006_R1_002.fastq'
p1391
sg15
S'002'
p1392
sba(i__main__
Fastq_Pair
p1393
(dp1394
g7
g1362
sg9
g1384
sg11
S'1216301824A_AAAGCA_L006_R2_003.fastq'
p1395
sg13
S'1216301824A_AAAGCA_L006_R1_003.fastq'
p1396
sg15
S'003'
p1397
sba(i__main__
Fastq_Pair
p1398
(dp1399
g7
g1362
sg9
g1384
sg11
S'1216301824A_AAAGCA_L006_R1_004.fastq'
p1400
sg13
S'1216301824A_AAAGCA_L006_R2_004.fastq'
p1401
sg15
S'004'
p1402
sbasg63
S'C0MR3ACXX'
p1403
sg65
g1362
sg66
S'1216301824A'
p1404
sba(i__main__
Sample
p1405
(dp1406
g3
(lp1407
(i__main__
Fastq_Pair
p1408
(dp1409
g7
S'/nas/erik/48exomes/Project_BCH_pool3_r1/Sample_1215100904A'
p1410
sg9
S'005'
p1411
sg11
S'1215100904A_GCCAAT_L005_R2_001.fastq'
p1412
sg13
S'1215100904A_GCCAAT_L005_R1_001.fastq'
p1413
sg15
S'001'
p1414
sba(i__main__
Fastq_Pair
p1415
(dp1416
g7
g1410
sg9
g1411
sg11
S'1215100904A_GCCAAT_L005_R2_002.fastq'
p1417
sg13
S'1215100904A_GCCAAT_L005_R1_002.fastq'
p1418
sg15
S'002'
p1419
sba(i__main__
Fastq_Pair
p1420
(dp1421
g7
g1410
sg9
g1411
sg11
S'1215100904A_GCCAAT_L005_R2_003.fastq'
p1422
sg13
S'1215100904A_GCCAAT_L005_R1_003.fastq'
p1423
sg15
S'003'
p1424
sba(i__main__
Fastq_Pair
p1425
(dp1426
g7
g1410
sg9
S'006'
p1427
sg11
S'1215100904A_GCCAAT_L006_R1_001.fastq'
p1428
sg13
S'1215100904A_GCCAAT_L006_R2_001.fastq'
p1429
sg15
S'001'
p1430
sba(i__main__
Fastq_Pair
p1431
(dp1432
g7
g1410
sg9
g1427
sg11
S'1215100904A_GCCAAT_L006_R2_002.fastq'
p1433
sg13
S'1215100904A_GCCAAT_L006_R1_002.fastq'
p1434
sg15
S'002'
p1435
sba(i__main__
Fastq_Pair
p1436
(dp1437
g7
g1410
sg9
g1427
sg11
S'1215100904A_GCCAAT_L006_R2_003.fastq'
p1438
sg13
S'1215100904A_GCCAAT_L006_R1_003.fastq'
p1439
sg15
S'003'
p1440
sbasg63
S'C0MR3ACXX'
p1441
sg65
g1410
sg66
S'1215100904A'
p1442
sba(i__main__
Sample
p1443
(dp1444
g3
(lp1445
(i__main__
Fastq_Pair
p1446
(dp1447
g7
S'/nas/erik/48exomes/Project_BCH_pool3_r1/Sample_1215100921A'
p1448
sg9
S'005'
p1449
sg11
S'1215100921A_GGCTAC_L005_R1_001.fastq'
p1450
sg13
S'1215100921A_GGCTAC_L005_R2_001.fastq'
p1451
sg15
S'001'
p1452
sba(i__main__
Fastq_Pair
p1453
(dp1454
g7
g1448
sg9
g1449
sg11
S'1215100921A_GGCTAC_L005_R2_002.fastq'
p1455
sg13
S'1215100921A_GGCTAC_L005_R1_002.fastq'
p1456
sg15
S'002'
p1457
sba(i__main__
Fastq_Pair
p1458
(dp1459
g7
g1448
sg9
g1449
sg11
S'1215100921A_GGCTAC_L005_R1_003.fastq'
p1460
sg13
S'1215100921A_GGCTAC_L005_R2_003.fastq'
p1461
sg15
S'003'
p1462
sba(i__main__
Fastq_Pair
p1463
(dp1464
g7
g1448
sg9
g1449
sg11
S'1215100921A_GGCTAC_L005_R1_004.fastq'
p1465
sg13
S'1215100921A_GGCTAC_L005_R2_004.fastq'
p1466
sg15
S'004'
p1467
sba(i__main__
Fastq_Pair
p1468
(dp1469
g7
g1448
sg9
g1449
sg11
S'1215100921A_GGCTAC_L005_R2_005.fastq'
p1470
sg13
S'1215100921A_GGCTAC_L005_R1_005.fastq'
p1471
sg15
S'005'
p1472
sba(i__main__
Fastq_Pair
p1473
(dp1474
g7
g1448
sg9
g1449
sg11
S'1215100921A_GGCTAC_L005_R2_006.fastq'
p1475
sg13
S'1215100921A_GGCTAC_L005_R1_006.fastq'
p1476
sg15
S'006'
p1477
sba(i__main__
Fastq_Pair
p1478
(dp1479
g7
g1448
sg9
g1449
sg11
S'1215100921A_GGCTAC_L005_R1_007.fastq'
p1480
sg13
S'1215100921A_GGCTAC_L005_R2_007.fastq'
p1481
sg15
S'007'
p1482
sba(i__main__
Fastq_Pair
p1483
(dp1484
g7
g1448
sg9
g1449
sg11
S'1215100921A_GGCTAC_L005_R2_008.fastq'
p1485
sg13
S'1215100921A_GGCTAC_L005_R1_008.fastq'
p1486
sg15
S'008'
p1487
sba(i__main__
Fastq_Pair
p1488
(dp1489
g7
g1448
sg9
g1449
sg11
S'1215100921A_GGCTAC_L005_R2_009.fastq'
p1490
sg13
S'1215100921A_GGCTAC_L005_R1_009.fastq'
p1491
sg15
S'009'
p1492
sba(i__main__
Fastq_Pair
p1493
(dp1494
g7
g1448
sg9
S'006'
p1495
sg11
S'1215100921A_GGCTAC_L006_R2_001.fastq'
p1496
sg13
S'1215100921A_GGCTAC_L006_R1_001.fastq'
p1497
sg15
S'001'
p1498
sba(i__main__
Fastq_Pair
p1499
(dp1500
g7
g1448
sg9
g1495
sg11
S'1215100921A_GGCTAC_L006_R1_002.fastq'
p1501
sg13
S'1215100921A_GGCTAC_L006_R2_002.fastq'
p1502
sg15
S'002'
p1503
sba(i__main__
Fastq_Pair
p1504
(dp1505
g7
g1448
sg9
g1495
sg11
S'1215100921A_GGCTAC_L006_R1_003.fastq'
p1506
sg13
S'1215100921A_GGCTAC_L006_R2_003.fastq'
p1507
sg15
S'003'
p1508
sba(i__main__
Fastq_Pair
p1509
(dp1510
g7
g1448
sg9
g1495
sg11
S'1215100921A_GGCTAC_L006_R2_004.fastq'
p1511
sg13
S'1215100921A_GGCTAC_L006_R1_004.fastq'
p1512
sg15
S'004'
p1513
sba(i__main__
Fastq_Pair
p1514
(dp1515
g7
g1448
sg9
g1495
sg11
S'1215100921A_GGCTAC_L006_R2_005.fastq'
p1516
sg13
S'1215100921A_GGCTAC_L006_R1_005.fastq'
p1517
sg15
S'005'
p1518
sba(i__main__
Fastq_Pair
p1519
(dp1520
g7
g1448
sg9
g1495
sg11
S'1215100921A_GGCTAC_L006_R2_006.fastq'
p1521
sg13
S'1215100921A_GGCTAC_L006_R1_006.fastq'
p1522
sg15
S'006'
p1523
sba(i__main__
Fastq_Pair
p1524
(dp1525
g7
g1448
sg9
g1495
sg11
S'1215100921A_GGCTAC_L006_R2_007.fastq'
p1526
sg13
S'1215100921A_GGCTAC_L006_R1_007.fastq'
p1527
sg15
S'007'
p1528
sba(i__main__
Fastq_Pair
p1529
(dp1530
g7
g1448
sg9
g1495
sg11
S'1215100921A_GGCTAC_L006_R2_008.fastq'
p1531
sg13
S'1215100921A_GGCTAC_L006_R1_008.fastq'
p1532
sg15
S'008'
p1533
sba(i__main__
Fastq_Pair
p1534
(dp1535
g7
g1448
sg9
g1495
sg11
S'1215100921A_GGCTAC_L006_R1_009.fastq'
p1536
sg13
S'1215100921A_GGCTAC_L006_R2_009.fastq'
p1537
sg15
S'009'
p1538
sbasg63
S'C0MR3ACXX'
p1539
sg65
g1448
sg66
S'1215100921A'
p1540
sba(i__main__
Sample
p1541
(dp1542
g3
(lp1543
(i__main__
Fastq_Pair
p1544
(dp1545
g7
S'/nas/erik/48exomes/Project_BCH_pool3_r1/Sample_1216301822A'
p1546
sg9
S'005'
p1547
sg11
S'1216301822A_CAAAAG_L005_R1_001.fastq'
p1548
sg13
S'1216301822A_CAAAAG_L005_R2_001.fastq'
p1549
sg15
S'001'
p1550
sba(i__main__
Fastq_Pair
p1551
(dp1552
g7
g1546
sg9
g1547
sg11
S'1216301822A_CAAAAG_L005_R2_002.fastq'
p1553
sg13
S'1216301822A_CAAAAG_L005_R1_002.fastq'
p1554
sg15
S'002'
p1555
sba(i__main__
Fastq_Pair
p1556
(dp1557
g7
g1546
sg9
g1547
sg11
S'1216301822A_CAAAAG_L005_R1_003.fastq'
p1558
sg13
S'1216301822A_CAAAAG_L005_R2_003.fastq'
p1559
sg15
S'003'
p1560
sba(i__main__
Fastq_Pair
p1561
(dp1562
g7
g1546
sg9
S'006'
p1563
sg11
S'1216301822A_CAAAAG_L006_R1_001.fastq'
p1564
sg13
S'1216301822A_CAAAAG_L006_R2_001.fastq'
p1565
sg15
S'001'
p1566
sba(i__main__
Fastq_Pair
p1567
(dp1568
g7
g1546
sg9
g1563
sg11
S'1216301822A_CAAAAG_L006_R2_002.fastq'
p1569
sg13
S'1216301822A_CAAAAG_L006_R1_002.fastq'
p1570
sg15
S'002'
p1571
sba(i__main__
Fastq_Pair
p1572
(dp1573
g7
g1546
sg9
g1563
sg11
S'1216301822A_CAAAAG_L006_R1_003.fastq'
p1574
sg13
S'1216301822A_CAAAAG_L006_R2_003.fastq'
p1575
sg15
S'003'
p1576
sbasg63
S'C0MR3ACXX'
p1577
sg65
g1546
sg66
S'1216301822A'
p1578
sba(i__main__
Sample
p1579
(dp1580
g3
(lp1581
(i__main__
Fastq_Pair
p1582
(dp1583
g7
S'/nas/erik/48exomes/Project_BCH_pool3_r1/Sample_1215100923A'
p1584
sg9
S'005'
p1585
sg11
S'1215100923A_CTTGTA_L005_R1_001.fastq'
p1586
sg13
S'1215100923A_CTTGTA_L005_R2_001.fastq'
p1587
sg15
S'001'
p1588
sba(i__main__
Fastq_Pair
p1589
(dp1590
g7
g1584
sg9
g1585
sg11
S'1215100923A_CTTGTA_L005_R2_002.fastq'
p1591
sg13
S'1215100923A_CTTGTA_L005_R1_002.fastq'
p1592
sg15
S'002'
p1593
sba(i__main__
Fastq_Pair
p1594
(dp1595
g7
g1584
sg9
g1585
sg11
S'1215100923A_CTTGTA_L005_R1_003.fastq'
p1596
sg13
S'1215100923A_CTTGTA_L005_R2_003.fastq'
p1597
sg15
S'003'
p1598
sba(i__main__
Fastq_Pair
p1599
(dp1600
g7
g1584
sg9
g1585
sg11
S'1215100923A_CTTGTA_L005_R2_004.fastq'
p1601
sg13
S'1215100923A_CTTGTA_L005_R1_004.fastq'
p1602
sg15
S'004'
p1603
sba(i__main__
Fastq_Pair
p1604
(dp1605
g7
g1584
sg9
g1585
sg11
S'1215100923A_CTTGTA_L005_R1_005.fastq'
p1606
sg13
S'1215100923A_CTTGTA_L005_R2_005.fastq'
p1607
sg15
S'005'
p1608
sba(i__main__
Fastq_Pair
p1609
(dp1610
g7
g1584
sg9
g1585
sg11
S'1215100923A_CTTGTA_L005_R1_006.fastq'
p1611
sg13
S'1215100923A_CTTGTA_L005_R2_006.fastq'
p1612
sg15
S'006'
p1613
sba(i__main__
Fastq_Pair
p1614
(dp1615
g7
g1584
sg9
g1585
sg11
S'1215100923A_CTTGTA_L005_R2_007.fastq'
p1616
sg13
S'1215100923A_CTTGTA_L005_R1_007.fastq'
p1617
sg15
S'007'
p1618
sba(i__main__
Fastq_Pair
p1619
(dp1620
g7
g1584
sg9
g1585
sg11
S'1215100923A_CTTGTA_L005_R2_008.fastq'
p1621
sg13
S'1215100923A_CTTGTA_L005_R1_008.fastq'
p1622
sg15
S'008'
p1623
sba(i__main__
Fastq_Pair
p1624
(dp1625
g7
g1584
sg9
g1585
sg11
S'1215100923A_CTTGTA_L005_R2_009.fastq'
p1626
sg13
S'1215100923A_CTTGTA_L005_R1_009.fastq'
p1627
sg15
S'009'
p1628
sba(i__main__
Fastq_Pair
p1629
(dp1630
g7
g1584
sg9
S'006'
p1631
sg11
S'1215100923A_CTTGTA_L006_R1_001.fastq'
p1632
sg13
S'1215100923A_CTTGTA_L006_R2_001.fastq'
p1633
sg15
S'001'
p1634
sba(i__main__
Fastq_Pair
p1635
(dp1636
g7
g1584
sg9
g1631
sg11
S'1215100923A_CTTGTA_L006_R1_002.fastq'
p1637
sg13
S'1215100923A_CTTGTA_L006_R2_002.fastq'
p1638
sg15
S'002'
p1639
sba(i__main__
Fastq_Pair
p1640
(dp1641
g7
g1584
sg9
g1631
sg11
S'1215100923A_CTTGTA_L006_R2_003.fastq'
p1642
sg13
S'1215100923A_CTTGTA_L006_R1_003.fastq'
p1643
sg15
S'003'
p1644
sba(i__main__
Fastq_Pair
p1645
(dp1646
g7
g1584
sg9
g1631
sg11
S'1215100923A_CTTGTA_L006_R2_004.fastq'
p1647
sg13
S'1215100923A_CTTGTA_L006_R1_004.fastq'
p1648
sg15
S'004'
p1649
sba(i__main__
Fastq_Pair
p1650
(dp1651
g7
g1584
sg9
g1631
sg11
S'1215100923A_CTTGTA_L006_R1_005.fastq'
p1652
sg13
S'1215100923A_CTTGTA_L006_R2_005.fastq'
p1653
sg15
S'005'
p1654
sba(i__main__
Fastq_Pair
p1655
(dp1656
g7
g1584
sg9
g1631
sg11
S'1215100923A_CTTGTA_L006_R1_006.fastq'
p1657
sg13
S'1215100923A_CTTGTA_L006_R2_006.fastq'
p1658
sg15
S'006'
p1659
sba(i__main__
Fastq_Pair
p1660
(dp1661
g7
g1584
sg9
g1631
sg11
S'1215100923A_CTTGTA_L006_R2_007.fastq'
p1662
sg13
S'1215100923A_CTTGTA_L006_R1_007.fastq'
p1663
sg15
S'007'
p1664
sba(i__main__
Fastq_Pair
p1665
(dp1666
g7
g1584
sg9
g1631
sg11
S'1215100923A_CTTGTA_L006_R2_008.fastq'
p1667
sg13
S'1215100923A_CTTGTA_L006_R1_008.fastq'
p1668
sg15
S'008'
p1669
sba(i__main__
Fastq_Pair
p1670
(dp1671
g7
g1584
sg9
g1631
sg11
S'1215100923A_CTTGTA_L006_R2_009.fastq'
p1672
sg13
S'1215100923A_CTTGTA_L006_R1_009.fastq'
p1673
sg15
S'009'
p1674
sba(i__main__
Fastq_Pair
p1675
(dp1676
g7
g1584
sg9
g1631
sg11
S'1215100923A_CTTGTA_L006_R2_010.fastq'
p1677
sg13
S'1215100923A_CTTGTA_L006_R1_010.fastq'
p1678
sg15
S'010'
p1679
sbasg63
S'C0MR3ACXX'
p1680
sg65
g1584
sg66
S'1215100923A'
p1681
sba(i__main__
Sample
p1682
(dp1683
g3
(lp1684
(i__main__
Fastq_Pair
p1685
(dp1686
g7
S'/nas/erik/48exomes/Project_BCH_pool3_r1/Sample_1215001889A'
p1687
sg9
S'005'
p1688
sg11
S'1215001889A_TGACCA_L005_R1_001.fastq'
p1689
sg13
S'1215001889A_TGACCA_L005_R2_001.fastq'
p1690
sg15
S'001'
p1691
sba(i__main__
Fastq_Pair
p1692
(dp1693
g7
g1687
sg9
g1688
sg11
S'1215001889A_TGACCA_L005_R1_002.fastq'
p1694
sg13
S'1215001889A_TGACCA_L005_R2_002.fastq'
p1695
sg15
S'002'
p1696
sba(i__main__
Fastq_Pair
p1697
(dp1698
g7
g1687
sg9
g1688
sg11
S'1215001889A_TGACCA_L005_R1_003.fastq'
p1699
sg13
S'1215001889A_TGACCA_L005_R2_003.fastq'
p1700
sg15
S'003'
p1701
sba(i__main__
Fastq_Pair
p1702
(dp1703
g7
g1687
sg9
g1688
sg11
S'1215001889A_TGACCA_L005_R2_004.fastq'
p1704
sg13
S'1215001889A_TGACCA_L005_R1_004.fastq'
p1705
sg15
S'004'
p1706
sba(i__main__
Fastq_Pair
p1707
(dp1708
g7
g1687
sg9
g1688
sg11
S'1215001889A_TGACCA_L005_R2_005.fastq'
p1709
sg13
S'1215001889A_TGACCA_L005_R1_005.fastq'
p1710
sg15
S'005'
p1711
sba(i__main__
Fastq_Pair
p1712
(dp1713
g7
g1687
sg9
g1688
sg11
S'1215001889A_TGACCA_L005_R1_006.fastq'
p1714
sg13
S'1215001889A_TGACCA_L005_R2_006.fastq'
p1715
sg15
S'006'
p1716
sba(i__main__
Fastq_Pair
p1717
(dp1718
g7
g1687
sg9
S'006'
p1719
sg11
S'1215001889A_TGACCA_L006_R2_001.fastq'
p1720
sg13
S'1215001889A_TGACCA_L006_R1_001.fastq'
p1721
sg15
S'001'
p1722
sba(i__main__
Fastq_Pair
p1723
(dp1724
g7
g1687
sg9
g1719
sg11
S'1215001889A_TGACCA_L006_R2_002.fastq'
p1725
sg13
S'1215001889A_TGACCA_L006_R1_002.fastq'
p1726
sg15
S'002'
p1727
sba(i__main__
Fastq_Pair
p1728
(dp1729
g7
g1687
sg9
g1719
sg11
S'1215001889A_TGACCA_L006_R2_003.fastq'
p1730
sg13
S'1215001889A_TGACCA_L006_R1_003.fastq'
p1731
sg15
S'003'
p1732
sba(i__main__
Fastq_Pair
p1733
(dp1734
g7
g1687
sg9
g1719
sg11
S'1215001889A_TGACCA_L006_R2_004.fastq'
p1735
sg13
S'1215001889A_TGACCA_L006_R1_004.fastq'
p1736
sg15
S'004'
p1737
sba(i__main__
Fastq_Pair
p1738
(dp1739
g7
g1687
sg9
g1719
sg11
S'1215001889A_TGACCA_L006_R1_005.fastq'
p1740
sg13
S'1215001889A_TGACCA_L006_R2_005.fastq'
p1741
sg15
S'005'
p1742
sba(i__main__
Fastq_Pair
p1743
(dp1744
g7
g1687
sg9
g1719
sg11
S'1215001889A_TGACCA_L006_R2_006.fastq'
p1745
sg13
S'1215001889A_TGACCA_L006_R1_006.fastq'
p1746
sg15
S'006'
p1747
sbasg63
S'C0MR3ACXX'
p1748
sg65
g1687
sg66
S'1215001889A'
p1749
sba(i__main__
Sample
p1750
(dp1751
g3
(lp1752
(i__main__
Fastq_Pair
p1753
(dp1754
g7
S'/nas/erik/48exomes/Project_BCH_pool3_r1/Sample_1216301818A'
p1755
sg9
S'005'
p1756
sg11
S'1216301818A_AAACAT_L005_R1_001.fastq'
p1757
sg13
S'1216301818A_AAACAT_L005_R2_001.fastq'
p1758
sg15
S'001'
p1759
sba(i__main__
Fastq_Pair
p1760
(dp1761
g7
g1755
sg9
g1756
sg11
S'1216301818A_AAACAT_L005_R2_002.fastq'
p1762
sg13
S'1216301818A_AAACAT_L005_R1_002.fastq'
p1763
sg15
S'002'
p1764
sba(i__main__
Fastq_Pair
p1765
(dp1766
g7
g1755
sg9
g1756
sg11
S'1216301818A_AAACAT_L005_R2_003.fastq'
p1767
sg13
S'1216301818A_AAACAT_L005_R1_003.fastq'
p1768
sg15
S'003'
p1769
sba(i__main__
Fastq_Pair
p1770
(dp1771
g7
g1755
sg9
g1756
sg11
S'1216301818A_AAACAT_L005_R2_004.fastq'
p1772
sg13
S'1216301818A_AAACAT_L005_R1_004.fastq'
p1773
sg15
S'004'
p1774
sba(i__main__
Fastq_Pair
p1775
(dp1776
g7
g1755
sg9
S'006'
p1777
sg11
S'1216301818A_AAACAT_L006_R2_001.fastq'
p1778
sg13
S'1216301818A_AAACAT_L006_R1_001.fastq'
p1779
sg15
S'001'
p1780
sba(i__main__
Fastq_Pair
p1781
(dp1782
g7
g1755
sg9
g1777
sg11
S'1216301818A_AAACAT_L006_R2_002.fastq'
p1783
sg13
S'1216301818A_AAACAT_L006_R1_002.fastq'
p1784
sg15
S'002'
p1785
sba(i__main__
Fastq_Pair
p1786
(dp1787
g7
g1755
sg9
g1777
sg11
S'1216301818A_AAACAT_L006_R2_003.fastq'
p1788
sg13
S'1216301818A_AAACAT_L006_R1_003.fastq'
p1789
sg15
S'003'
p1790
sba(i__main__
Fastq_Pair
p1791
(dp1792
g7
g1755
sg9
g1777
sg11
S'1216301818A_AAACAT_L006_R1_004.fastq'
p1793
sg13
S'1216301818A_AAACAT_L006_R2_004.fastq'
p1794
sg15
S'004'
p1795
sbasg63
S'C0MR3ACXX'
p1796
sg65
g1755
sg66
S'1216301818A'
p1797
sba(i__main__
Sample
p1798
(dp1799
g3
(lp1800
(i__main__
Fastq_Pair
p1801
(dp1802
g7
S'/nas/erik/48exomes/Project_BCH_pool3_r1/Sample_1215001883A'
p1803
sg9
S'005'
p1804
sg11
S'1215001883A_CGATGT_L005_R2_001.fastq'
p1805
sg13
S'1215001883A_CGATGT_L005_R1_001.fastq'
p1806
sg15
S'001'
p1807
sba(i__main__
Fastq_Pair
p1808
(dp1809
g7
g1803
sg9
g1804
sg11
S'1215001883A_CGATGT_L005_R1_002.fastq'
p1810
sg13
S'1215001883A_CGATGT_L005_R2_002.fastq'
p1811
sg15
S'002'
p1812
sba(i__main__
Fastq_Pair
p1813
(dp1814
g7
g1803
sg9
g1804
sg11
S'1215001883A_CGATGT_L005_R1_003.fastq'
p1815
sg13
S'1215001883A_CGATGT_L005_R2_003.fastq'
p1816
sg15
S'003'
p1817
sba(i__main__
Fastq_Pair
p1818
(dp1819
g7
g1803
sg9
g1804
sg11
S'1215001883A_CGATGT_L005_R1_004.fastq'
p1820
sg13
S'1215001883A_CGATGT_L005_R2_004.fastq'
p1821
sg15
S'004'
p1822
sba(i__main__
Fastq_Pair
p1823
(dp1824
g7
g1803
sg9
g1804
sg11
S'1215001883A_CGATGT_L005_R2_005.fastq'
p1825
sg13
S'1215001883A_CGATGT_L005_R1_005.fastq'
p1826
sg15
S'005'
p1827
sba(i__main__
Fastq_Pair
p1828
(dp1829
g7
g1803
sg9
g1804
sg11
S'1215001883A_CGATGT_L005_R1_006.fastq'
p1830
sg13
S'1215001883A_CGATGT_L005_R2_006.fastq'
p1831
sg15
S'006'
p1832
sba(i__main__
Fastq_Pair
p1833
(dp1834
g7
g1803
sg9
S'006'
p1835
sg11
S'1215001883A_CGATGT_L006_R2_001.fastq'
p1836
sg13
S'1215001883A_CGATGT_L006_R1_001.fastq'
p1837
sg15
S'001'
p1838
sba(i__main__
Fastq_Pair
p1839
(dp1840
g7
g1803
sg9
g1835
sg11
S'1215001883A_CGATGT_L006_R1_002.fastq'
p1841
sg13
S'1215001883A_CGATGT_L006_R2_002.fastq'
p1842
sg15
S'002'
p1843
sba(i__main__
Fastq_Pair
p1844
(dp1845
g7
g1803
sg9
g1835
sg11
S'1215001883A_CGATGT_L006_R1_003.fastq'
p1846
sg13
S'1215001883A_CGATGT_L006_R2_003.fastq'
p1847
sg15
S'003'
p1848
sba(i__main__
Fastq_Pair
p1849
(dp1850
g7
g1803
sg9
g1835
sg11
S'1215001883A_CGATGT_L006_R2_004.fastq'
p1851
sg13
S'1215001883A_CGATGT_L006_R1_004.fastq'
p1852
sg15
S'004'
p1853
sba(i__main__
Fastq_Pair
p1854
(dp1855
g7
g1803
sg9
g1835
sg11
S'1215001883A_CGATGT_L006_R1_005.fastq'
p1856
sg13
S'1215001883A_CGATGT_L006_R2_005.fastq'
p1857
sg15
S'005'
p1858
sba(i__main__
Fastq_Pair
p1859
(dp1860
g7
g1803
sg9
g1835
sg11
S'1215001883A_CGATGT_L006_R1_006.fastq'
p1861
sg13
S'1215001883A_CGATGT_L006_R2_006.fastq'
p1862
sg15
S'006'
p1863
sbasg63
S'C0MR3ACXX'
p1864
sg65
g1803
sg66
S'1215001883A'
p1865
sba(i__main__
Sample
p1866
(dp1867
g3
(lp1868
(i__main__
Fastq_Pair
p1869
(dp1870
g7
S'/nas/erik/48exomes/Project_BCH_pool3_r1/Sample_1215001882A'
p1871
sg9
S'005'
p1872
sg11
S'1215001882A_ATCACG_L005_R1_001.fastq'
p1873
sg13
S'1215001882A_ATCACG_L005_R2_001.fastq'
p1874
sg15
S'001'
p1875
sba(i__main__
Fastq_Pair
p1876
(dp1877
g7
g1871
sg9
g1872
sg11
S'1215001882A_ATCACG_L005_R1_002.fastq'
p1878
sg13
S'1215001882A_ATCACG_L005_R2_002.fastq'
p1879
sg15
S'002'
p1880
sba(i__main__
Fastq_Pair
p1881
(dp1882
g7
g1871
sg9
g1872
sg11
S'1215001882A_ATCACG_L005_R1_003.fastq'
p1883
sg13
S'1215001882A_ATCACG_L005_R2_003.fastq'
p1884
sg15
S'003'
p1885
sba(i__main__
Fastq_Pair
p1886
(dp1887
g7
g1871
sg9
g1872
sg11
S'1215001882A_ATCACG_L005_R1_004.fastq'
p1888
sg13
S'1215001882A_ATCACG_L005_R2_004.fastq'
p1889
sg15
S'004'
p1890
sba(i__main__
Fastq_Pair
p1891
(dp1892
g7
g1871
sg9
S'006'
p1893
sg11
S'1215001882A_ATCACG_L006_R2_001.fastq'
p1894
sg13
S'1215001882A_ATCACG_L006_R1_001.fastq'
p1895
sg15
S'001'
p1896
sba(i__main__
Fastq_Pair
p1897
(dp1898
g7
g1871
sg9
g1893
sg11
S'1215001882A_ATCACG_L006_R1_002.fastq'
p1899
sg13
S'1215001882A_ATCACG_L006_R2_002.fastq'
p1900
sg15
S'002'
p1901
sba(i__main__
Fastq_Pair
p1902
(dp1903
g7
g1871
sg9
g1893
sg11
S'1215001882A_ATCACG_L006_R1_003.fastq'
p1904
sg13
S'1215001882A_ATCACG_L006_R2_003.fastq'
p1905
sg15
S'003'
p1906
sba(i__main__
Fastq_Pair
p1907
(dp1908
g7
g1871
sg9
g1893
sg11
S'1215001882A_ATCACG_L006_R1_004.fastq'
p1909
sg13
S'1215001882A_ATCACG_L006_R2_004.fastq'
p1910
sg15
S'004'
p1911
sbasg63
S'C0MR3ACXX'
p1912
sg65
g1871
sg66
S'1215001882A'
p1913
sba(i__main__
Sample
p1914
(dp1915
g3
(lp1916
(i__main__
Fastq_Pair
p1917
(dp1918
g7
S'/nas/erik/48exomes/Project_BCH_pool3_r1/Sample_1216301823A'
p1919
sg9
S'005'
p1920
sg11
S'1216301823A_GAAACC_L005_R2_001.fastq'
p1921
sg13
S'1216301823A_GAAACC_L005_R1_001.fastq'
p1922
sg15
S'001'
p1923
sba(i__main__
Fastq_Pair
p1924
(dp1925
g7
g1919
sg9
g1920
sg11
S'1216301823A_GAAACC_L005_R1_002.fastq'
p1926
sg13
S'1216301823A_GAAACC_L005_R2_002.fastq'
p1927
sg15
S'002'
p1928
sba(i__main__
Fastq_Pair
p1929
(dp1930
g7
g1919
sg9
g1920
sg11
S'1216301823A_GAAACC_L005_R2_003.fastq'
p1931
sg13
S'1216301823A_GAAACC_L005_R1_003.fastq'
p1932
sg15
S'003'
p1933
sba(i__main__
Fastq_Pair
p1934
(dp1935
g7
g1919
sg9
g1920
sg11
S'1216301823A_GAAACC_L005_R2_004.fastq'
p1936
sg13
S'1216301823A_GAAACC_L005_R1_004.fastq'
p1937
sg15
S'004'
p1938
sba(i__main__
Fastq_Pair
p1939
(dp1940
g7
g1919
sg9
g1920
sg11
S'1216301823A_GAAACC_L005_R2_005.fastq'
p1941
sg13
S'1216301823A_GAAACC_L005_R1_005.fastq'
p1942
sg15
S'005'
p1943
sba(i__main__
Fastq_Pair
p1944
(dp1945
g7
g1919
sg9
S'006'
p1946
sg11
S'1216301823A_GAAACC_L006_R1_001.fastq'
p1947
sg13
S'1216301823A_GAAACC_L006_R2_001.fastq'
p1948
sg15
S'001'
p1949
sba(i__main__
Fastq_Pair
p1950
(dp1951
g7
g1919
sg9
g1946
sg11
S'1216301823A_GAAACC_L006_R2_002.fastq'
p1952
sg13
S'1216301823A_GAAACC_L006_R1_002.fastq'
p1953
sg15
S'002'
p1954
sba(i__main__
Fastq_Pair
p1955
(dp1956
g7
g1919
sg9
g1946
sg11
S'1216301823A_GAAACC_L006_R1_003.fastq'
p1957
sg13
S'1216301823A_GAAACC_L006_R2_003.fastq'
p1958
sg15
S'003'
p1959
sba(i__main__
Fastq_Pair
p1960
(dp1961
g7
g1919
sg9
g1946
sg11
S'1216301823A_GAAACC_L006_R1_004.fastq'
p1962
sg13
S'1216301823A_GAAACC_L006_R2_004.fastq'
p1963
sg15
S'004'
p1964
sba(i__main__
Fastq_Pair
p1965
(dp1966
g7
g1919
sg9
g1946
sg11
S'1216301823A_GAAACC_L006_R2_005.fastq'
p1967
sg13
S'1216301823A_GAAACC_L006_R1_005.fastq'
p1968
sg15
S'005'
p1969
sbasg63
S'C0MR3ACXX'
p1970
sg65
g1919
sg66
S'1216301823A'
p1971
sba(i__main__
Sample
p1972
(dp1973
g3
(lp1974
(i__main__
Fastq_Pair
p1975
(dp1976
g7
S'/nas/erik/48exomes/Project_BCH_pool3_r1/Sample_1215101040A'
p1977
sg9
S'005'
p1978
sg11
S'1215101040A_ACAGTG_L005_R1_001.fastq'
p1979
sg13
S'1215101040A_ACAGTG_L005_R2_001.fastq'
p1980
sg15
S'001'
p1981
sba(i__main__
Fastq_Pair
p1982
(dp1983
g7
g1977
sg9
g1978
sg11
S'1215101040A_ACAGTG_L005_R2_002.fastq'
p1984
sg13
S'1215101040A_ACAGTG_L005_R1_002.fastq'
p1985
sg15
S'002'
p1986
sba(i__main__
Fastq_Pair
p1987
(dp1988
g7
g1977
sg9
g1978
sg11
S'1215101040A_ACAGTG_L005_R1_003.fastq'
p1989
sg13
S'1215101040A_ACAGTG_L005_R2_003.fastq'
p1990
sg15
S'003'
p1991
sba(i__main__
Fastq_Pair
p1992
(dp1993
g7
g1977
sg9
S'006'
p1994
sg11
S'1215101040A_ACAGTG_L006_R2_001.fastq'
p1995
sg13
S'1215101040A_ACAGTG_L006_R1_001.fastq'
p1996
sg15
S'001'
p1997
sba(i__main__
Fastq_Pair
p1998
(dp1999
g7
g1977
sg9
g1994
sg11
S'1215101040A_ACAGTG_L006_R1_002.fastq'
p2000
sg13
S'1215101040A_ACAGTG_L006_R2_002.fastq'
p2001
sg15
S'002'
p2002
sba(i__main__
Fastq_Pair
p2003
(dp2004
g7
g1977
sg9
g1994
sg11
S'1215101040A_ACAGTG_L006_R1_003.fastq'
p2005
sg13
S'1215101040A_ACAGTG_L006_R2_003.fastq'
p2006
sg15
S'003'
p2007
sbasg63
S'C0MR3ACXX'
p2008
sg65
g1977
sg66
S'1215101040A'
p2009
sba(i__main__
Sample
p2010
(dp2011
g3
(lp2012
(i__main__
Fastq_Pair
p2013
(dp2014
g7
S'/nas/erik/48exomes/Project_BCH_pool3_r1/Sample_1215001886A'
p2015
sg9
S'005'
p2016
sg11
S'1215001886A_TTAGGC_L005_R1_001.fastq'
p2017
sg13
S'1215001886A_TTAGGC_L005_R2_001.fastq'
p2018
sg15
S'001'
p2019
sba(i__main__
Fastq_Pair
p2020
(dp2021
g7
g2015
sg9
g2016
sg11
S'1215001886A_TTAGGC_L005_R1_002.fastq'
p2022
sg13
S'1215001886A_TTAGGC_L005_R2_002.fastq'
p2023
sg15
S'002'
p2024
sba(i__main__
Fastq_Pair
p2025
(dp2026
g7
g2015
sg9
g2016
sg11
S'1215001886A_TTAGGC_L005_R2_003.fastq'
p2027
sg13
S'1215001886A_TTAGGC_L005_R1_003.fastq'
p2028
sg15
S'003'
p2029
sba(i__main__
Fastq_Pair
p2030
(dp2031
g7
g2015
sg9
g2016
sg11
S'1215001886A_TTAGGC_L005_R1_004.fastq'
p2032
sg13
S'1215001886A_TTAGGC_L005_R2_004.fastq'
p2033
sg15
S'004'
p2034
sba(i__main__
Fastq_Pair
p2035
(dp2036
g7
g2015
sg9
g2016
sg11
S'1215001886A_TTAGGC_L005_R1_005.fastq'
p2037
sg13
S'1215001886A_TTAGGC_L005_R2_005.fastq'
p2038
sg15
S'005'
p2039
sba(i__main__
Fastq_Pair
p2040
(dp2041
g7
g2015
sg9
S'006'
p2042
sg11
S'1215001886A_TTAGGC_L006_R1_001.fastq'
p2043
sg13
S'1215001886A_TTAGGC_L006_R2_001.fastq'
p2044
sg15
S'001'
p2045
sba(i__main__
Fastq_Pair
p2046
(dp2047
g7
g2015
sg9
g2042
sg11
S'1215001886A_TTAGGC_L006_R2_002.fastq'
p2048
sg13
S'1215001886A_TTAGGC_L006_R1_002.fastq'
p2049
sg15
S'002'
p2050
sba(i__main__
Fastq_Pair
p2051
(dp2052
g7
g2015
sg9
g2042
sg11
S'1215001886A_TTAGGC_L006_R2_003.fastq'
p2053
sg13
S'1215001886A_TTAGGC_L006_R1_003.fastq'
p2054
sg15
S'003'
p2055
sba(i__main__
Fastq_Pair
p2056
(dp2057
g7
g2015
sg9
g2042
sg11
S'1215001886A_TTAGGC_L006_R1_004.fastq'
p2058
sg13
S'1215001886A_TTAGGC_L006_R2_004.fastq'
p2059
sg15
S'004'
p2060
sba(i__main__
Fastq_Pair
p2061
(dp2062
g7
g2015
sg9
g2042
sg11
S'1215001886A_TTAGGC_L006_R2_005.fastq'
p2063
sg13
S'1215001886A_TTAGGC_L006_R1_005.fastq'
p2064
sg15
S'005'
p2065
sbasg63
S'C0MR3ACXX'
p2066
sg65
g2015
sg66
S'1215001886A'
p2067
sba(i__main__
Sample
p2068
(dp2069
g3
(lp2070
(i__main__
Fastq_Pair
p2071
(dp2072
g7
S'/nas/erik/48exomes/Project_BCH_pool4_r1/Sample_1215100926A'
p2073
sg9
S'007'
p2074
sg11
S'1215100926A_AAACAT_L007_R1_001.fastq'
p2075
sg13
S'1215100926A_AAACAT_L007_R2_001.fastq'
p2076
sg15
S'001'
p2077
sba(i__main__
Fastq_Pair
p2078
(dp2079
g7
g2073
sg9
g2074
sg11
S'1215100926A_AAACAT_L007_R2_002.fastq'
p2080
sg13
S'1215100926A_AAACAT_L007_R1_002.fastq'
p2081
sg15
S'002'
p2082
sba(i__main__
Fastq_Pair
p2083
(dp2084
g7
g2073
sg9
g2074
sg11
S'1215100926A_AAACAT_L007_R1_003.fastq'
p2085
sg13
S'1215100926A_AAACAT_L007_R2_003.fastq'
p2086
sg15
S'003'
p2087
sba(i__main__
Fastq_Pair
p2088
(dp2089
g7
g2073
sg9
g2074
sg11
S'1215100926A_AAACAT_L007_R1_004.fastq'
p2090
sg13
S'1215100926A_AAACAT_L007_R2_004.fastq'
p2091
sg15
S'004'
p2092
sba(i__main__
Fastq_Pair
p2093
(dp2094
g7
g2073
sg9
g2074
sg11
S'1215100926A_AAACAT_L007_R2_005.fastq'
p2095
sg13
S'1215100926A_AAACAT_L007_R1_005.fastq'
p2096
sg15
S'005'
p2097
sba(i__main__
Fastq_Pair
p2098
(dp2099
g7
g2073
sg9
g2074
sg11
S'1215100926A_AAACAT_L007_R2_006.fastq'
p2100
sg13
S'1215100926A_AAACAT_L007_R1_006.fastq'
p2101
sg15
S'006'
p2102
sba(i__main__
Fastq_Pair
p2103
(dp2104
g7
g2073
sg9
g2074
sg11
S'1215100926A_AAACAT_L007_R2_007.fastq'
p2105
sg13
S'1215100926A_AAACAT_L007_R1_007.fastq'
p2106
sg15
S'007'
p2107
sba(i__main__
Fastq_Pair
p2108
(dp2109
g7
g2073
sg9
g2074
sg11
S'1215100926A_AAACAT_L007_R1_008.fastq'
p2110
sg13
S'1215100926A_AAACAT_L007_R2_008.fastq'
p2111
sg15
S'008'
p2112
sba(i__main__
Fastq_Pair
p2113
(dp2114
g7
g2073
sg9
g2074
sg11
S'1215100926A_AAACAT_L007_R2_009.fastq'
p2115
sg13
S'1215100926A_AAACAT_L007_R1_009.fastq'
p2116
sg15
S'009'
p2117
sba(i__main__
Fastq_Pair
p2118
(dp2119
g7
g2073
sg9
g2074
sg11
S'1215100926A_AAACAT_L007_R2_010.fastq'
p2120
sg13
S'1215100926A_AAACAT_L007_R1_010.fastq'
p2121
sg15
S'010'
p2122
sba(i__main__
Fastq_Pair
p2123
(dp2124
g7
g2073
sg9
g2074
sg11
S'1215100926A_AAACAT_L007_R1_011.fastq'
p2125
sg13
S'1215100926A_AAACAT_L007_R2_011.fastq'
p2126
sg15
S'011'
p2127
sba(i__main__
Fastq_Pair
p2128
(dp2129
g7
g2073
sg9
g2074
sg11
S'1215100926A_AAACAT_L007_R2_012.fastq'
p2130
sg13
S'1215100926A_AAACAT_L007_R1_012.fastq'
p2131
sg15
S'012'
p2132
sba(i__main__
Fastq_Pair
p2133
(dp2134
g7
g2073
sg9
S'008'
p2135
sg11
S'1215100926A_AAACAT_L008_R2_001.fastq'
p2136
sg13
S'1215100926A_AAACAT_L008_R1_001.fastq'
p2137
sg15
S'001'
p2138
sba(i__main__
Fastq_Pair
p2139
(dp2140
g7
g2073
sg9
g2135
sg11
S'1215100926A_AAACAT_L008_R2_002.fastq'
p2141
sg13
S'1215100926A_AAACAT_L008_R1_002.fastq'
p2142
sg15
S'002'
p2143
sba(i__main__
Fastq_Pair
p2144
(dp2145
g7
g2073
sg9
g2135
sg11
S'1215100926A_AAACAT_L008_R1_003.fastq'
p2146
sg13
S'1215100926A_AAACAT_L008_R2_003.fastq'
p2147
sg15
S'003'
p2148
sba(i__main__
Fastq_Pair
p2149
(dp2150
g7
g2073
sg9
g2135
sg11
S'1215100926A_AAACAT_L008_R2_004.fastq'
p2151
sg13
S'1215100926A_AAACAT_L008_R1_004.fastq'
p2152
sg15
S'004'
p2153
sba(i__main__
Fastq_Pair
p2154
(dp2155
g7
g2073
sg9
g2135
sg11
S'1215100926A_AAACAT_L008_R2_005.fastq'
p2156
sg13
S'1215100926A_AAACAT_L008_R1_005.fastq'
p2157
sg15
S'005'
p2158
sba(i__main__
Fastq_Pair
p2159
(dp2160
g7
g2073
sg9
g2135
sg11
S'1215100926A_AAACAT_L008_R2_006.fastq'
p2161
sg13
S'1215100926A_AAACAT_L008_R1_006.fastq'
p2162
sg15
S'006'
p2163
sba(i__main__
Fastq_Pair
p2164
(dp2165
g7
g2073
sg9
g2135
sg11
S'1215100926A_AAACAT_L008_R1_007.fastq'
p2166
sg13
S'1215100926A_AAACAT_L008_R2_007.fastq'
p2167
sg15
S'007'
p2168
sba(i__main__
Fastq_Pair
p2169
(dp2170
g7
g2073
sg9
g2135
sg11
S'1215100926A_AAACAT_L008_R2_008.fastq'
p2171
sg13
S'1215100926A_AAACAT_L008_R1_008.fastq'
p2172
sg15
S'008'
p2173
sba(i__main__
Fastq_Pair
p2174
(dp2175
g7
g2073
sg9
g2135
sg11
S'1215100926A_AAACAT_L008_R1_009.fastq'
p2176
sg13
S'1215100926A_AAACAT_L008_R2_009.fastq'
p2177
sg15
S'009'
p2178
sba(i__main__
Fastq_Pair
p2179
(dp2180
g7
g2073
sg9
g2135
sg11
S'1215100926A_AAACAT_L008_R1_010.fastq'
p2181
sg13
S'1215100926A_AAACAT_L008_R2_010.fastq'
p2182
sg15
S'010'
p2183
sba(i__main__
Fastq_Pair
p2184
(dp2185
g7
g2073
sg9
g2135
sg11
S'1215100926A_AAACAT_L008_R1_011.fastq'
p2186
sg13
S'1215100926A_AAACAT_L008_R2_011.fastq'
p2187
sg15
S'011'
p2188
sba(i__main__
Fastq_Pair
p2189
(dp2190
g7
g2073
sg9
g2135
sg11
S'1215100926A_AAACAT_L008_R2_012.fastq'
p2191
sg13
S'1215100926A_AAACAT_L008_R1_012.fastq'
p2192
sg15
S'012'
p2193
sbasg63
S'C0MR3ACXX'
p2194
sg65
g2073
sg66
S'1215100926A'
p2195
sba(i__main__
Sample
p2196
(dp2197
g3
(lp2198
(i__main__
Fastq_Pair
p2199
(dp2200
g7
S'/nas/erik/48exomes/Project_BCH_pool4_r1/Sample_1215100752A'
p2201
sg9
S'007'
p2202
sg11
S'1215100752A_ATCACG_L007_R2_001.fastq'
p2203
sg13
S'1215100752A_ATCACG_L007_R1_001.fastq'
p2204
sg15
S'001'
p2205
sba(i__main__
Fastq_Pair
p2206
(dp2207
g7
g2201
sg9
g2202
sg11
S'1215100752A_ATCACG_L007_R2_002.fastq'
p2208
sg13
S'1215100752A_ATCACG_L007_R1_002.fastq'
p2209
sg15
S'002'
p2210
sba(i__main__
Fastq_Pair
p2211
(dp2212
g7
g2201
sg9
g2202
sg11
S'1215100752A_ATCACG_L007_R1_003.fastq'
p2213
sg13
S'1215100752A_ATCACG_L007_R2_003.fastq'
p2214
sg15
S'003'
p2215
sba(i__main__
Fastq_Pair
p2216
(dp2217
g7
g2201
sg9
S'008'
p2218
sg11
S'1215100752A_ATCACG_L008_R2_001.fastq'
p2219
sg13
S'1215100752A_ATCACG_L008_R1_001.fastq'
p2220
sg15
S'001'
p2221
sba(i__main__
Fastq_Pair
p2222
(dp2223
g7
g2201
sg9
g2218
sg11
S'1215100752A_ATCACG_L008_R1_002.fastq'
p2224
sg13
S'1215100752A_ATCACG_L008_R2_002.fastq'
p2225
sg15
S'002'
p2226
sba(i__main__
Fastq_Pair
p2227
(dp2228
g7
g2201
sg9
g2218
sg11
S'1215100752A_ATCACG_L008_R1_003.fastq'
p2229
sg13
S'1215100752A_ATCACG_L008_R2_003.fastq'
p2230
sg15
S'003'
p2231
sbasg63
S'C0MR3ACXX'
p2232
sg65
g2201
sg66
S'1215100752A'
p2233
sba(i__main__
Sample
p2234
(dp2235
g3
(lp2236
(i__main__
Fastq_Pair
p2237
(dp2238
g7
S'/nas/erik/48exomes/Project_BCH_pool4_r1/Sample_1215100910A'
p2239
sg9
S'007'
p2240
sg11
S'1215100910A_CAGATC_L007_R2_001.fastq'
p2241
sg13
S'1215100910A_CAGATC_L007_R1_001.fastq'
p2242
sg15
S'001'
p2243
sba(i__main__
Fastq_Pair
p2244
(dp2245
g7
g2239
sg9
g2240
sg11
S'1215100910A_CAGATC_L007_R1_002.fastq'
p2246
sg13
S'1215100910A_CAGATC_L007_R2_002.fastq'
p2247
sg15
S'002'
p2248
sba(i__main__
Fastq_Pair
p2249
(dp2250
g7
g2239
sg9
g2240
sg11
S'1215100910A_CAGATC_L007_R2_003.fastq'
p2251
sg13
S'1215100910A_CAGATC_L007_R1_003.fastq'
p2252
sg15
S'003'
p2253
sba(i__main__
Fastq_Pair
p2254
(dp2255
g7
g2239
sg9
S'008'
p2256
sg11
S'1215100910A_CAGATC_L008_R2_001.fastq'
p2257
sg13
S'1215100910A_CAGATC_L008_R1_001.fastq'
p2258
sg15
S'001'
p2259
sba(i__main__
Fastq_Pair
p2260
(dp2261
g7
g2239
sg9
g2256
sg11
S'1215100910A_CAGATC_L008_R1_002.fastq'
p2262
sg13
S'1215100910A_CAGATC_L008_R2_002.fastq'
p2263
sg15
S'002'
p2264
sba(i__main__
Fastq_Pair
p2265
(dp2266
g7
g2239
sg9
g2256
sg11
S'1215100910A_CAGATC_L008_R2_003.fastq'
p2267
sg13
S'1215100910A_CAGATC_L008_R1_003.fastq'
p2268
sg15
S'003'
p2269
sbasg63
S'C0MR3ACXX'
p2270
sg65
g2239
sg66
S'1215100910A'
p2271
sba(i__main__
Sample
p2272
(dp2273
g3
(lp2274
(i__main__
Fastq_Pair
p2275
(dp2276
g7
S'/nas/erik/48exomes/Project_BCH_pool4_r1/Sample_1215100762A'
p2277
sg9
S'007'
p2278
sg11
S'1215100762A_TGACCA_L007_R1_001.fastq'
p2279
sg13
S'1215100762A_TGACCA_L007_R2_001.fastq'
p2280
sg15
S'001'
p2281
sba(i__main__
Fastq_Pair
p2282
(dp2283
g7
g2277
sg9
g2278
sg11
S'1215100762A_TGACCA_L007_R2_002.fastq'
p2284
sg13
S'1215100762A_TGACCA_L007_R1_002.fastq'
p2285
sg15
S'002'
p2286
sba(i__main__
Fastq_Pair
p2287
(dp2288
g7
g2277
sg9
g2278
sg11
S'1215100762A_TGACCA_L007_R1_003.fastq'
p2289
sg13
S'1215100762A_TGACCA_L007_R2_003.fastq'
p2290
sg15
S'003'
p2291
sba(i__main__
Fastq_Pair
p2292
(dp2293
g7
g2277
sg9
S'008'
p2294
sg11
S'1215100762A_TGACCA_L008_R2_001.fastq'
p2295
sg13
S'1215100762A_TGACCA_L008_R1_001.fastq'
p2296
sg15
S'001'
p2297
sba(i__main__
Fastq_Pair
p2298
(dp2299
g7
g2277
sg9
g2294
sg11
S'1215100762A_TGACCA_L008_R2_002.fastq'
p2300
sg13
S'1215100762A_TGACCA_L008_R1_002.fastq'
p2301
sg15
S'002'
p2302
sba(i__main__
Fastq_Pair
p2303
(dp2304
g7
g2277
sg9
g2294
sg11
S'1215100762A_TGACCA_L008_R1_003.fastq'
p2305
sg13
S'1215100762A_TGACCA_L008_R2_003.fastq'
p2306
sg15
S'003'
p2307
sbasg63
S'C0MR3ACXX'
p2308
sg65
g2277
sg66
S'1215100762A'
p2309
sba(i__main__
Sample
p2310
(dp2311
g3
(lp2312
(i__main__
Fastq_Pair
p2313
(dp2314
g7
S'/nas/erik/48exomes/Project_BCH_pool4_r1/Sample_1215100934A'
p2315
sg9
S'007'
p2316
sg11
S'1215100934A_AAAGCA_L007_R1_001.fastq'
p2317
sg13
S'1215100934A_AAAGCA_L007_R2_001.fastq'
p2318
sg15
S'001'
p2319
sba(i__main__
Fastq_Pair
p2320
(dp2321
g7
g2315
sg9
g2316
sg11
S'1215100934A_AAAGCA_L007_R2_002.fastq'
p2322
sg13
S'1215100934A_AAAGCA_L007_R1_002.fastq'
p2323
sg15
S'002'
p2324
sba(i__main__
Fastq_Pair
p2325
(dp2326
g7
g2315
sg9
g2316
sg11
S'1215100934A_AAAGCA_L007_R2_003.fastq'
p2327
sg13
S'1215100934A_AAAGCA_L007_R1_003.fastq'
p2328
sg15
S'003'
p2329
sba(i__main__
Fastq_Pair
p2330
(dp2331
g7
g2315
sg9
g2316
sg11
S'1215100934A_AAAGCA_L007_R2_004.fastq'
p2332
sg13
S'1215100934A_AAAGCA_L007_R1_004.fastq'
p2333
sg15
S'004'
p2334
sba(i__main__
Fastq_Pair
p2335
(dp2336
g7
g2315
sg9
g2316
sg11
S'1215100934A_AAAGCA_L007_R1_005.fastq'
p2337
sg13
S'1215100934A_AAAGCA_L007_R2_005.fastq'
p2338
sg15
S'005'
p2339
sba(i__main__
Fastq_Pair
p2340
(dp2341
g7
g2315
sg9
g2316
sg11
S'1215100934A_AAAGCA_L007_R2_006.fastq'
p2342
sg13
S'1215100934A_AAAGCA_L007_R1_006.fastq'
p2343
sg15
S'006'
p2344
sba(i__main__
Fastq_Pair
p2345
(dp2346
g7
g2315
sg9
g2316
sg11
S'1215100934A_AAAGCA_L007_R1_007.fastq'
p2347
sg13
S'1215100934A_AAAGCA_L007_R2_007.fastq'
p2348
sg15
S'007'
p2349
sba(i__main__
Fastq_Pair
p2350
(dp2351
g7
g2315
sg9
S'008'
p2352
sg11
S'1215100934A_AAAGCA_L008_R2_001.fastq'
p2353
sg13
S'1215100934A_AAAGCA_L008_R1_001.fastq'
p2354
sg15
S'001'
p2355
sba(i__main__
Fastq_Pair
p2356
(dp2357
g7
g2315
sg9
g2352
sg11
S'1215100934A_AAAGCA_L008_R1_002.fastq'
p2358
sg13
S'1215100934A_AAAGCA_L008_R2_002.fastq'
p2359
sg15
S'002'
p2360
sba(i__main__
Fastq_Pair
p2361
(dp2362
g7
g2315
sg9
g2352
sg11
S'1215100934A_AAAGCA_L008_R1_003.fastq'
p2363
sg13
S'1215100934A_AAAGCA_L008_R2_003.fastq'
p2364
sg15
S'003'
p2365
sba(i__main__
Fastq_Pair
p2366
(dp2367
g7
g2315
sg9
g2352
sg11
S'1215100934A_AAAGCA_L008_R1_004.fastq'
p2368
sg13
S'1215100934A_AAAGCA_L008_R2_004.fastq'
p2369
sg15
S'004'
p2370
sba(i__main__
Fastq_Pair
p2371
(dp2372
g7
g2315
sg9
g2352
sg11
S'1215100934A_AAAGCA_L008_R2_005.fastq'
p2373
sg13
S'1215100934A_AAAGCA_L008_R1_005.fastq'
p2374
sg15
S'005'
p2375
sba(i__main__
Fastq_Pair
p2376
(dp2377
g7
g2315
sg9
g2352
sg11
S'1215100934A_AAAGCA_L008_R1_006.fastq'
p2378
sg13
S'1215100934A_AAAGCA_L008_R2_006.fastq'
p2379
sg15
S'006'
p2380
sba(i__main__
Fastq_Pair
p2381
(dp2382
g7
g2315
sg9
g2352
sg11
S'1215100934A_AAAGCA_L008_R2_007.fastq'
p2383
sg13
S'1215100934A_AAAGCA_L008_R1_007.fastq'
p2384
sg15
S'007'
p2385
sbasg63
S'C0MR3ACXX'
p2386
sg65
g2315
sg66
S'1215100934A'
p2387
sba(i__main__
Sample
p2388
(dp2389
g3
(lp2390
(i__main__
Fastq_Pair
p2391
(dp2392
g7
S'/nas/erik/48exomes/Project_BCH_pool4_r1/Sample_1215100755A'
p2393
sg9
S'007'
p2394
sg11
S'1215100755A_CGATGT_L007_R1_001.fastq'
p2395
sg13
S'1215100755A_CGATGT_L007_R2_001.fastq'
p2396
sg15
S'001'
p2397
sba(i__main__
Fastq_Pair
p2398
(dp2399
g7
g2393
sg9
g2394
sg11
S'1215100755A_CGATGT_L007_R2_002.fastq'
p2400
sg13
S'1215100755A_CGATGT_L007_R1_002.fastq'
p2401
sg15
S'002'
p2402
sba(i__main__
Fastq_Pair
p2403
(dp2404
g7
g2393
sg9
g2394
sg11
S'1215100755A_CGATGT_L007_R2_003.fastq'
p2405
sg13
S'1215100755A_CGATGT_L007_R1_003.fastq'
p2406
sg15
S'003'
p2407
sba(i__main__
Fastq_Pair
p2408
(dp2409
g7
g2393
sg9
S'008'
p2410
sg11
S'1215100755A_CGATGT_L008_R1_001.fastq'
p2411
sg13
S'1215100755A_CGATGT_L008_R2_001.fastq'
p2412
sg15
S'001'
p2413
sba(i__main__
Fastq_Pair
p2414
(dp2415
g7
g2393
sg9
g2410
sg11
S'1215100755A_CGATGT_L008_R2_002.fastq'
p2416
sg13
S'1215100755A_CGATGT_L008_R1_002.fastq'
p2417
sg15
S'002'
p2418
sba(i__main__
Fastq_Pair
p2419
(dp2420
g7
g2393
sg9
g2410
sg11
S'1215100755A_CGATGT_L008_R1_003.fastq'
p2421
sg13
S'1215100755A_CGATGT_L008_R2_003.fastq'
p2422
sg15
S'003'
p2423
sbasg63
S'C0MR3ACXX'
p2424
sg65
g2393
sg66
S'1215100755A'
p2425
sba(i__main__
Sample
p2426
(dp2427
g3
(lp2428
(i__main__
Fastq_Pair
p2429
(dp2430
g7
S'/nas/erik/48exomes/Project_BCH_pool4_r1/Sample_1215100756A'
p2431
sg9
S'007'
p2432
sg11
S'1215100756A_TTAGGC_L007_R2_001.fastq'
p2433
sg13
S'1215100756A_TTAGGC_L007_R1_001.fastq'
p2434
sg15
S'001'
p2435
sba(i__main__
Fastq_Pair
p2436
(dp2437
g7
g2431
sg9
g2432
sg11
S'1215100756A_TTAGGC_L007_R1_002.fastq'
p2438
sg13
S'1215100756A_TTAGGC_L007_R2_002.fastq'
p2439
sg15
S'002'
p2440
sba(i__main__
Fastq_Pair
p2441
(dp2442
g7
g2431
sg9
g2432
sg11
S'1215100756A_TTAGGC_L007_R2_003.fastq'
p2443
sg13
S'1215100756A_TTAGGC_L007_R1_003.fastq'
p2444
sg15
S'003'
p2445
sba(i__main__
Fastq_Pair
p2446
(dp2447
g7
g2431
sg9
S'008'
p2448
sg11
S'1215100756A_TTAGGC_L008_R2_001.fastq'
p2449
sg13
S'1215100756A_TTAGGC_L008_R1_001.fastq'
p2450
sg15
S'001'
p2451
sba(i__main__
Fastq_Pair
p2452
(dp2453
g7
g2431
sg9
g2448
sg11
S'1215100756A_TTAGGC_L008_R2_002.fastq'
p2454
sg13
S'1215100756A_TTAGGC_L008_R1_002.fastq'
p2455
sg15
S'002'
p2456
sba(i__main__
Fastq_Pair
p2457
(dp2458
g7
g2431
sg9
g2448
sg11
S'1215100756A_TTAGGC_L008_R1_003.fastq'
p2459
sg13
S'1215100756A_TTAGGC_L008_R2_003.fastq'
p2460
sg15
S'003'
p2461
sbasg63
S'C0MR3ACXX'
p2462
sg65
g2431
sg66
S'1215100756A'
p2463
sba(i__main__
Sample
p2464
(dp2465
g3
(lp2466
(i__main__
Fastq_Pair
p2467
(dp2468
g7
S'/nas/erik/48exomes/Project_BCH_pool4_r1/Sample_1215100912A'
p2469
sg9
S'007'
p2470
sg11
S'1215100912A_ACTTGA_L007_R2_001.fastq'
p2471
sg13
S'1215100912A_ACTTGA_L007_R1_001.fastq'
p2472
sg15
S'001'
p2473
sba(i__main__
Fastq_Pair
p2474
(dp2475
g7
g2469
sg9
g2470
sg11
S'1215100912A_ACTTGA_L007_R1_002.fastq'
p2476
sg13
S'1215100912A_ACTTGA_L007_R2_002.fastq'
p2477
sg15
S'002'
p2478
sba(i__main__
Fastq_Pair
p2479
(dp2480
g7
g2469
sg9
g2470
sg11
S'1215100912A_ACTTGA_L007_R2_003.fastq'
p2481
sg13
S'1215100912A_ACTTGA_L007_R1_003.fastq'
p2482
sg15
S'003'
p2483
sba(i__main__
Fastq_Pair
p2484
(dp2485
g7
g2469
sg9
S'008'
p2486
sg11
S'1215100912A_ACTTGA_L008_R1_001.fastq'
p2487
sg13
S'1215100912A_ACTTGA_L008_R2_001.fastq'
p2488
sg15
S'001'
p2489
sba(i__main__
Fastq_Pair
p2490
(dp2491
g7
g2469
sg9
g2486
sg11
S'1215100912A_ACTTGA_L008_R2_002.fastq'
p2492
sg13
S'1215100912A_ACTTGA_L008_R1_002.fastq'
p2493
sg15
S'002'
p2494
sba(i__main__
Fastq_Pair
p2495
(dp2496
g7
g2469
sg9
g2486
sg11
S'1215100912A_ACTTGA_L008_R1_003.fastq'
p2497
sg13
S'1215100912A_ACTTGA_L008_R2_003.fastq'
p2498
sg15
S'003'
p2499
sbasg63
S'C0MR3ACXX'
p2500
sg65
g2469
sg66
S'1215100912A'
p2501
sba(i__main__
Sample
p2502
(dp2503
g3
(lp2504
(i__main__
Fastq_Pair
p2505
(dp2506
g7
S'/nas/erik/48exomes/Project_BCH_pool4_r1/Sample_1215100918A'
p2507
sg9
S'007'
p2508
sg11
S'1215100918A_TAGCTT_L007_R2_001.fastq'
p2509
sg13
S'1215100918A_TAGCTT_L007_R1_001.fastq'
p2510
sg15
S'001'
p2511
sba(i__main__
Fastq_Pair
p2512
(dp2513
g7
g2507
sg9
g2508
sg11
S'1215100918A_TAGCTT_L007_R1_002.fastq'
p2514
sg13
S'1215100918A_TAGCTT_L007_R2_002.fastq'
p2515
sg15
S'002'
p2516
sba(i__main__
Fastq_Pair
p2517
(dp2518
g7
g2507
sg9
g2508
sg11
S'1215100918A_TAGCTT_L007_R2_003.fastq'
p2519
sg13
S'1215100918A_TAGCTT_L007_R1_003.fastq'
p2520
sg15
S'003'
p2521
sba(i__main__
Fastq_Pair
p2522
(dp2523
g7
g2507
sg9
g2508
sg11
S'1215100918A_TAGCTT_L007_R2_004.fastq'
p2524
sg13
S'1215100918A_TAGCTT_L007_R1_004.fastq'
p2525
sg15
S'004'
p2526
sba(i__main__
Fastq_Pair
p2527
(dp2528
g7
g2507
sg9
g2508
sg11
S'1215100918A_TAGCTT_L007_R2_005.fastq'
p2529
sg13
S'1215100918A_TAGCTT_L007_R1_005.fastq'
p2530
sg15
S'005'
p2531
sba(i__main__
Fastq_Pair
p2532
(dp2533
g7
g2507
sg9
g2508
sg11
S'1215100918A_TAGCTT_L007_R2_006.fastq'
p2534
sg13
S'1215100918A_TAGCTT_L007_R1_006.fastq'
p2535
sg15
S'006'
p2536
sba(i__main__
Fastq_Pair
p2537
(dp2538
g7
g2507
sg9
g2508
sg11
S'1215100918A_TAGCTT_L007_R1_007.fastq'
p2539
sg13
S'1215100918A_TAGCTT_L007_R2_007.fastq'
p2540
sg15
S'007'
p2541
sba(i__main__
Fastq_Pair
p2542
(dp2543
g7
g2507
sg9
g2508
sg11
S'1215100918A_TAGCTT_L007_R2_008.fastq'
p2544
sg13
S'1215100918A_TAGCTT_L007_R1_008.fastq'
p2545
sg15
S'008'
p2546
sba(i__main__
Fastq_Pair
p2547
(dp2548
g7
g2507
sg9
g2508
sg11
S'1215100918A_TAGCTT_L007_R2_009.fastq'
p2549
sg13
S'1215100918A_TAGCTT_L007_R1_009.fastq'
p2550
sg15
S'009'
p2551
sba(i__main__
Fastq_Pair
p2552
(dp2553
g7
g2507
sg9
S'008'
p2554
sg11
S'1215100918A_TAGCTT_L008_R2_001.fastq'
p2555
sg13
S'1215100918A_TAGCTT_L008_R1_001.fastq'
p2556
sg15
S'001'
p2557
sba(i__main__
Fastq_Pair
p2558
(dp2559
g7
g2507
sg9
g2554
sg11
S'1215100918A_TAGCTT_L008_R1_002.fastq'
p2560
sg13
S'1215100918A_TAGCTT_L008_R2_002.fastq'
p2561
sg15
S'002'
p2562
sba(i__main__
Fastq_Pair
p2563
(dp2564
g7
g2507
sg9
g2554
sg11
S'1215100918A_TAGCTT_L008_R2_003.fastq'
p2565
sg13
S'1215100918A_TAGCTT_L008_R1_003.fastq'
p2566
sg15
S'003'
p2567
sba(i__main__
Fastq_Pair
p2568
(dp2569
g7
g2507
sg9
g2554
sg11
S'1215100918A_TAGCTT_L008_R1_004.fastq'
p2570
sg13
S'1215100918A_TAGCTT_L008_R2_004.fastq'
p2571
sg15
S'004'
p2572
sba(i__main__
Fastq_Pair
p2573
(dp2574
g7
g2507
sg9
g2554
sg11
S'1215100918A_TAGCTT_L008_R1_005.fastq'
p2575
sg13
S'1215100918A_TAGCTT_L008_R2_005.fastq'
p2576
sg15
S'005'
p2577
sba(i__main__
Fastq_Pair
p2578
(dp2579
g7
g2507
sg9
g2554
sg11
S'1215100918A_TAGCTT_L008_R2_006.fastq'
p2580
sg13
S'1215100918A_TAGCTT_L008_R1_006.fastq'
p2581
sg15
S'006'
p2582
sba(i__main__
Fastq_Pair
p2583
(dp2584
g7
g2507
sg9
g2554
sg11
S'1215100918A_TAGCTT_L008_R2_007.fastq'
p2585
sg13
S'1215100918A_TAGCTT_L008_R1_007.fastq'
p2586
sg15
S'007'
p2587
sba(i__main__
Fastq_Pair
p2588
(dp2589
g7
g2507
sg9
g2554
sg11
S'1215100918A_TAGCTT_L008_R1_008.fastq'
p2590
sg13
S'1215100918A_TAGCTT_L008_R2_008.fastq'
p2591
sg15
S'008'
p2592
sba(i__main__
Fastq_Pair
p2593
(dp2594
g7
g2507
sg9
g2554
sg11
S'1215100918A_TAGCTT_L008_R2_009.fastq'
p2595
sg13
S'1215100918A_TAGCTT_L008_R1_009.fastq'
p2596
sg15
S'009'
p2597
sbasg63
S'C0MR3ACXX'
p2598
sg65
g2507
sg66
S'1215100918A'
p2599
sba(i__main__
Sample
p2600
(dp2601
g3
(lp2602
(i__main__
Fastq_Pair
p2603
(dp2604
g7
S'/nas/erik/48exomes/Project_BCH_pool4_r1/Sample_1215100932A'
p2605
sg9
S'007'
p2606
sg11
S'1215100932A_GAAACC_L007_R2_001.fastq'
p2607
sg13
S'1215100932A_GAAACC_L007_R1_001.fastq'
p2608
sg15
S'001'
p2609
sba(i__main__
Fastq_Pair
p2610
(dp2611
g7
g2605
sg9
g2606
sg11
S'1215100932A_GAAACC_L007_R2_002.fastq'
p2612
sg13
S'1215100932A_GAAACC_L007_R1_002.fastq'
p2613
sg15
S'002'
p2614
sba(i__main__
Fastq_Pair
p2615
(dp2616
g7
g2605
sg9
g2606
sg11
S'1215100932A_GAAACC_L007_R2_003.fastq'
p2617
sg13
S'1215100932A_GAAACC_L007_R1_003.fastq'
p2618
sg15
S'003'
p2619
sba(i__main__
Fastq_Pair
p2620
(dp2621
g7
g2605
sg9
g2606
sg11
S'1215100932A_GAAACC_L007_R1_004.fastq'
p2622
sg13
S'1215100932A_GAAACC_L007_R2_004.fastq'
p2623
sg15
S'004'
p2624
sba(i__main__
Fastq_Pair
p2625
(dp2626
g7
g2605
sg9
g2606
sg11
S'1215100932A_GAAACC_L007_R1_005.fastq'
p2627
sg13
S'1215100932A_GAAACC_L007_R2_005.fastq'
p2628
sg15
S'005'
p2629
sba(i__main__
Fastq_Pair
p2630
(dp2631
g7
g2605
sg9
g2606
sg11
S'1215100932A_GAAACC_L007_R2_006.fastq'
p2632
sg13
S'1215100932A_GAAACC_L007_R1_006.fastq'
p2633
sg15
S'006'
p2634
sba(i__main__
Fastq_Pair
p2635
(dp2636
g7
g2605
sg9
g2606
sg11
S'1215100932A_GAAACC_L007_R1_007.fastq'
p2637
sg13
S'1215100932A_GAAACC_L007_R2_007.fastq'
p2638
sg15
S'007'
p2639
sba(i__main__
Fastq_Pair
p2640
(dp2641
g7
g2605
sg9
g2606
sg11
S'1215100932A_GAAACC_L007_R1_008.fastq'
p2642
sg13
S'1215100932A_GAAACC_L007_R2_008.fastq'
p2643
sg15
S'008'
p2644
sba(i__main__
Fastq_Pair
p2645
(dp2646
g7
g2605
sg9
g2606
sg11
S'1215100932A_GAAACC_L007_R2_009.fastq'
p2647
sg13
S'1215100932A_GAAACC_L007_R1_009.fastq'
p2648
sg15
S'009'
p2649
sba(i__main__
Fastq_Pair
p2650
(dp2651
g7
g2605
sg9
g2606
sg11
S'1215100932A_GAAACC_L007_R1_010.fastq'
p2652
sg13
S'1215100932A_GAAACC_L007_R2_010.fastq'
p2653
sg15
S'010'
p2654
sba(i__main__
Fastq_Pair
p2655
(dp2656
g7
g2605
sg9
S'008'
p2657
sg11
S'1215100932A_GAAACC_L008_R2_001.fastq'
p2658
sg13
S'1215100932A_GAAACC_L008_R1_001.fastq'
p2659
sg15
S'001'
p2660
sba(i__main__
Fastq_Pair
p2661
(dp2662
g7
g2605
sg9
g2657
sg11
S'1215100932A_GAAACC_L008_R2_002.fastq'
p2663
sg13
S'1215100932A_GAAACC_L008_R1_002.fastq'
p2664
sg15
S'002'
p2665
sba(i__main__
Fastq_Pair
p2666
(dp2667
g7
g2605
sg9
g2657
sg11
S'1215100932A_GAAACC_L008_R2_003.fastq'
p2668
sg13
S'1215100932A_GAAACC_L008_R1_003.fastq'
p2669
sg15
S'003'
p2670
sba(i__main__
Fastq_Pair
p2671
(dp2672
g7
g2605
sg9
g2657
sg11
S'1215100932A_GAAACC_L008_R2_004.fastq'
p2673
sg13
S'1215100932A_GAAACC_L008_R1_004.fastq'
p2674
sg15
S'004'
p2675
sba(i__main__
Fastq_Pair
p2676
(dp2677
g7
g2605
sg9
g2657
sg11
S'1215100932A_GAAACC_L008_R1_005.fastq'
p2678
sg13
S'1215100932A_GAAACC_L008_R2_005.fastq'
p2679
sg15
S'005'
p2680
sba(i__main__
Fastq_Pair
p2681
(dp2682
g7
g2605
sg9
g2657
sg11
S'1215100932A_GAAACC_L008_R1_006.fastq'
p2683
sg13
S'1215100932A_GAAACC_L008_R2_006.fastq'
p2684
sg15
S'006'
p2685
sba(i__main__
Fastq_Pair
p2686
(dp2687
g7
g2605
sg9
g2657
sg11
S'1215100932A_GAAACC_L008_R2_007.fastq'
p2688
sg13
S'1215100932A_GAAACC_L008_R1_007.fastq'
p2689
sg15
S'007'
p2690
sba(i__main__
Fastq_Pair
p2691
(dp2692
g7
g2605
sg9
g2657
sg11
S'1215100932A_GAAACC_L008_R2_008.fastq'
p2693
sg13
S'1215100932A_GAAACC_L008_R1_008.fastq'
p2694
sg15
S'008'
p2695
sba(i__main__
Fastq_Pair
p2696
(dp2697
g7
g2605
sg9
g2657
sg11
S'1215100932A_GAAACC_L008_R1_009.fastq'
p2698
sg13
S'1215100932A_GAAACC_L008_R2_009.fastq'
p2699
sg15
S'009'
p2700
sba(i__main__
Fastq_Pair
p2701
(dp2702
g7
g2605
sg9
g2657
sg11
S'1215100932A_GAAACC_L008_R2_010.fastq'
p2703
sg13
S'1215100932A_GAAACC_L008_R1_010.fastq'
p2704
sg15
S'010'
p2705
sbasg63
S'C0MR3ACXX'
p2706
sg65
g2605
sg66
S'1215100932A'
p2707
sba(i__main__
Sample
p2708
(dp2709
g3
(lp2710
(i__main__
Fastq_Pair
p2711
(dp2712
g7
S'/nas/erik/48exomes/Project_BCH_pool4_r1/Sample_1215100915A'
p2713
sg9
S'007'
p2714
sg11
S'1215100915A_GATCAG_L007_R1_001.fastq'
p2715
sg13
S'1215100915A_GATCAG_L007_R2_001.fastq'
p2716
sg15
S'001'
p2717
sba(i__main__
Fastq_Pair
p2718
(dp2719
g7
g2713
sg9
g2714
sg11
S'1215100915A_GATCAG_L007_R2_002.fastq'
p2720
sg13
S'1215100915A_GATCAG_L007_R1_002.fastq'
p2721
sg15
S'002'
p2722
sba(i__main__
Fastq_Pair
p2723
(dp2724
g7
g2713
sg9
g2714
sg11
S'1215100915A_GATCAG_L007_R1_003.fastq'
p2725
sg13
S'1215100915A_GATCAG_L007_R2_003.fastq'
p2726
sg15
S'003'
p2727
sba(i__main__
Fastq_Pair
p2728
(dp2729
g7
g2713
sg9
g2714
sg11
S'1215100915A_GATCAG_L007_R1_004.fastq'
p2730
sg13
S'1215100915A_GATCAG_L007_R2_004.fastq'
p2731
sg15
S'004'
p2732
sba(i__main__
Fastq_Pair
p2733
(dp2734
g7
g2713
sg9
g2714
sg11
S'1215100915A_GATCAG_L007_R2_005.fastq'
p2735
sg13
S'1215100915A_GATCAG_L007_R1_005.fastq'
p2736
sg15
S'005'
p2737
sba(i__main__
Fastq_Pair
p2738
(dp2739
g7
g2713
sg9
g2714
sg11
S'1215100915A_GATCAG_L007_R1_006.fastq'
p2740
sg13
S'1215100915A_GATCAG_L007_R2_006.fastq'
p2741
sg15
S'006'
p2742
sba(i__main__
Fastq_Pair
p2743
(dp2744
g7
g2713
sg9
S'008'
p2745
sg11
S'1215100915A_GATCAG_L008_R1_001.fastq'
p2746
sg13
S'1215100915A_GATCAG_L008_R2_001.fastq'
p2747
sg15
S'001'
p2748
sba(i__main__
Fastq_Pair
p2749
(dp2750
g7
g2713
sg9
g2745
sg11
S'1215100915A_GATCAG_L008_R2_002.fastq'
p2751
sg13
S'1215100915A_GATCAG_L008_R1_002.fastq'
p2752
sg15
S'002'
p2753
sba(i__main__
Fastq_Pair
p2754
(dp2755
g7
g2713
sg9
g2745
sg11
S'1215100915A_GATCAG_L008_R1_003.fastq'
p2756
sg13
S'1215100915A_GATCAG_L008_R2_003.fastq'
p2757
sg15
S'003'
p2758
sba(i__main__
Fastq_Pair
p2759
(dp2760
g7
g2713
sg9
g2745
sg11
S'1215100915A_GATCAG_L008_R1_004.fastq'
p2761
sg13
S'1215100915A_GATCAG_L008_R2_004.fastq'
p2762
sg15
S'004'
p2763
sba(i__main__
Fastq_Pair
p2764
(dp2765
g7
g2713
sg9
g2745
sg11
S'1215100915A_GATCAG_L008_R1_005.fastq'
p2766
sg13
S'1215100915A_GATCAG_L008_R2_005.fastq'
p2767
sg15
S'005'
p2768
sba(i__main__
Fastq_Pair
p2769
(dp2770
g7
g2713
sg9
g2745
sg11
S'1215100915A_GATCAG_L008_R2_006.fastq'
p2771
sg13
S'1215100915A_GATCAG_L008_R1_006.fastq'
p2772
sg15
S'006'
p2773
sbasg63
S'C0MR3ACXX'
p2774
sg65
g2713
sg66
S'1215100915A'
p2775
sba(i__main__
Sample
p2776
(dp2777
g3
(lp2778
(i__main__
Fastq_Pair
p2779
(dp2780
g7
S'/nas/erik/48exomes/Project_BCH_pool4_r1/Sample_1215100929A'
p2781
sg9
S'007'
p2782
sg11
S'1215100929A_CAAAAG_L007_R1_001.fastq'
p2783
sg13
S'1215100929A_CAAAAG_L007_R2_001.fastq'
p2784
sg15
S'001'
p2785
sba(i__main__
Fastq_Pair
p2786
(dp2787
g7
g2781
sg9
g2782
sg11
S'1215100929A_CAAAAG_L007_R2_002.fastq'
p2788
sg13
S'1215100929A_CAAAAG_L007_R1_002.fastq'
p2789
sg15
S'002'
p2790
sba(i__main__
Fastq_Pair
p2791
(dp2792
g7
g2781
sg9
g2782
sg11
S'1215100929A_CAAAAG_L007_R1_003.fastq'
p2793
sg13
S'1215100929A_CAAAAG_L007_R2_003.fastq'
p2794
sg15
S'003'
p2795
sba(i__main__
Fastq_Pair
p2796
(dp2797
g7
g2781
sg9
g2782
sg11
S'1215100929A_CAAAAG_L007_R2_004.fastq'
p2798
sg13
S'1215100929A_CAAAAG_L007_R1_004.fastq'
p2799
sg15
S'004'
p2800
sba(i__main__
Fastq_Pair
p2801
(dp2802
g7
g2781
sg9
g2782
sg11
S'1215100929A_CAAAAG_L007_R2_005.fastq'
p2803
sg13
S'1215100929A_CAAAAG_L007_R1_005.fastq'
p2804
sg15
S'005'
p2805
sba(i__main__
Fastq_Pair
p2806
(dp2807
g7
g2781
sg9
g2782
sg11
S'1215100929A_CAAAAG_L007_R2_006.fastq'
p2808
sg13
S'1215100929A_CAAAAG_L007_R1_006.fastq'
p2809
sg15
S'006'
p2810
sba(i__main__
Fastq_Pair
p2811
(dp2812
g7
g2781
sg9
g2782
sg11
S'1215100929A_CAAAAG_L007_R1_007.fastq'
p2813
sg13
S'1215100929A_CAAAAG_L007_R2_007.fastq'
p2814
sg15
S'007'
p2815
sba(i__main__
Fastq_Pair
p2816
(dp2817
g7
g2781
sg9
S'008'
p2818
sg11
S'1215100929A_CAAAAG_L008_R1_001.fastq'
p2819
sg13
S'1215100929A_CAAAAG_L008_R2_001.fastq'
p2820
sg15
S'001'
p2821
sba(i__main__
Fastq_Pair
p2822
(dp2823
g7
g2781
sg9
g2818
sg11
S'1215100929A_CAAAAG_L008_R2_002.fastq'
p2824
sg13
S'1215100929A_CAAAAG_L008_R1_002.fastq'
p2825
sg15
S'002'
p2826
sba(i__main__
Fastq_Pair
p2827
(dp2828
g7
g2781
sg9
g2818
sg11
S'1215100929A_CAAAAG_L008_R2_003.fastq'
p2829
sg13
S'1215100929A_CAAAAG_L008_R1_003.fastq'
p2830
sg15
S'003'
p2831
sba(i__main__
Fastq_Pair
p2832
(dp2833
g7
g2781
sg9
g2818
sg11
S'1215100929A_CAAAAG_L008_R2_004.fastq'
p2834
sg13
S'1215100929A_CAAAAG_L008_R1_004.fastq'
p2835
sg15
S'004'
p2836
sba(i__main__
Fastq_Pair
p2837
(dp2838
g7
g2781
sg9
g2818
sg11
S'1215100929A_CAAAAG_L008_R1_005.fastq'
p2839
sg13
S'1215100929A_CAAAAG_L008_R2_005.fastq'
p2840
sg15
S'005'
p2841
sba(i__main__
Fastq_Pair
p2842
(dp2843
g7
g2781
sg9
g2818
sg11
S'1215100929A_CAAAAG_L008_R2_006.fastq'
p2844
sg13
S'1215100929A_CAAAAG_L008_R1_006.fastq'
p2845
sg15
S'006'
p2846
sba(i__main__
Fastq_Pair
p2847
(dp2848
g7
g2781
sg9
g2818
sg11
S'1215100929A_CAAAAG_L008_R2_007.fastq'
p2849
sg13
S'1215100929A_CAAAAG_L008_R1_007.fastq'
p2850
sg15
S'007'
p2851
sbasg63
S'C0MR3ACXX'
p2852
sg65
g2781
sg66
S'1215100929A'
p2853
sba.